   1              		.arch armv7e-m
   2              		.eabi_attribute 27, 1
   3              		.eabi_attribute 28, 1
   4              		.eabi_attribute 20, 1
   5              		.eabi_attribute 21, 1
   6              		.eabi_attribute 23, 3
   7              		.eabi_attribute 24, 1
   8              		.eabi_attribute 25, 1
   9              		.eabi_attribute 26, 1
  10              		.eabi_attribute 30, 4
  11              		.eabi_attribute 34, 1
  12              		.eabi_attribute 18, 4
  13              		.file	"serial_io.c"
  14              		.text
  15              	.Ltext0:
  16              		.cfi_sections	.debug_frame
  17              		.align	1
  18              		.global	enable_USART2_GPIO
  19              		.arch armv7e-m
  20              		.syntax unified
  21              		.thumb
  22              		.thumb_func
  23              		.fpu fpv4-sp-d16
  24              		.type	enable_USART2_GPIO, %function
  25              	enable_USART2_GPIO:
  26              	.LFB400:
  27              		.file 1 "src/sys/serial_io.c"
   1:src/sys/serial_io.c **** #include "serial_io.h"
   2:src/sys/serial_io.c **** #include "clock.h"
   3:src/sys/serial_io.c **** #include "devices.h"
   4:src/sys/serial_io.c **** #include "cm4.h"
   5:src/sys/serial_io.c **** #include <stdio.h>
   6:src/sys/serial_io.c **** 
   7:src/sys/serial_io.c **** void enable_USART2_GPIO() {
  28              		.loc 1 7 27 view -0
  29              		.cfi_startproc
  30              		@ args = 0, pretend = 0, frame = 0
  31              		@ frame_needed = 0, uses_anonymous_args = 0
  32              		@ link register save eliminated.
   8:src/sys/serial_io.c ****   /*  Enable GPIOA  */
   9:src/sys/serial_io.c **** 
  10:src/sys/serial_io.c ****   enable_GPIOA();
  33              		.loc 1 10 3 view .LVU1
  34              	.LBB14:
  35              	.LBI14:
  36              		.file 2 "src/sys/devices.h"
   1:src/sys/devices.h **** #ifndef __IO_H
   2:src/sys/devices.h **** #define __IO_H
   3:src/sys/devices.h **** 
   4:src/sys/devices.h **** #include<stdint.h>
   5:src/sys/devices.h **** #include "cm4.h"
   6:src/sys/devices.h **** 
   7:src/sys/devices.h **** #define __reserved(offset) \
   8:src/sys/devices.h ****   uint32_t _reserved_ ## offset
   9:src/sys/devices.h **** 
  10:src/sys/devices.h **** #define __reserved_interval(offset1,offset2) \
  11:src/sys/devices.h ****   uint32_t _reserved_ ## offset1 ## _ ## offset2[((offset2)-(offset1))/4]
  12:src/sys/devices.h **** 
  13:src/sys/devices.h **** /* PM §4.2.10 */ 
  14:src/sys/devices.h **** struct MPU_registers {
  15:src/sys/devices.h ****   uint32_t TYPER;
  16:src/sys/devices.h ****   uint32_t CTRL;
  17:src/sys/devices.h ****   uint32_t RNR;
  18:src/sys/devices.h ****   uint32_t RBAR;
  19:src/sys/devices.h ****   uint32_t RASR;
  20:src/sys/devices.h ****   uint32_t RBAR_A1;
  21:src/sys/devices.h ****   uint32_t RASR_A1;
  22:src/sys/devices.h ****   uint32_t RBAR_A2;
  23:src/sys/devices.h ****   uint32_t RASR_A2;
  24:src/sys/devices.h ****   uint32_t RBAR_A3;
  25:src/sys/devices.h ****   uint32_t RASR_A3;
  26:src/sys/devices.h **** };
  27:src/sys/devices.h **** 
  28:src/sys/devices.h **** /* PM §4.3.11 */ 
  29:src/sys/devices.h **** struct NVIC_registers {
  30:src/sys/devices.h ****   uint32_t ISER[3];
  31:src/sys/devices.h ****   __reserved_interval(0x0c,0x80);
  32:src/sys/devices.h ****   uint32_t ICER[3];
  33:src/sys/devices.h ****   __reserved_interval(0x8c,0x100);
  34:src/sys/devices.h ****   uint32_t ISPR[3];
  35:src/sys/devices.h ****   __reserved_interval(0x10c,0x180);
  36:src/sys/devices.h ****   uint32_t ICPR[3];
  37:src/sys/devices.h ****   __reserved_interval(0x18c,0x200);
  38:src/sys/devices.h ****   uint32_t IABR[3];
  39:src/sys/devices.h ****   __reserved_interval(0x20c,0x300);
  40:src/sys/devices.h ****   uint8_t  IP[81];
  41:src/sys/devices.h ****   uint8_t _reserved_bytes[3];
  42:src/sys/devices.h **** };
  43:src/sys/devices.h **** 
  44:src/sys/devices.h **** /* PM §4.4.19 */ 
  45:src/sys/devices.h **** struct SCB_registers {
  46:src/sys/devices.h ****   uint32_t CPUID;
  47:src/sys/devices.h ****   uint32_t ICSR;
  48:src/sys/devices.h ****   uint32_t VTOR;
  49:src/sys/devices.h ****   uint32_t AIRCR;
  50:src/sys/devices.h ****   uint32_t SCR;
  51:src/sys/devices.h ****   uint32_t CCR;
  52:src/sys/devices.h ****   uint32_t SHPR1;
  53:src/sys/devices.h ****   uint32_t SHPR2;
  54:src/sys/devices.h ****   uint32_t SHPR3;
  55:src/sys/devices.h ****   uint32_t SHCRS;
  56:src/sys/devices.h ****   uint32_t CFSR;
  57:src/sys/devices.h ****   uint32_t HFSR;
  58:src/sys/devices.h ****   uint32_t MMAR;
  59:src/sys/devices.h ****   uint32_t BFAR;
  60:src/sys/devices.h ****   uint32_t AFSR;
  61:src/sys/devices.h **** };
  62:src/sys/devices.h **** 
  63:src/sys/devices.h **** /* PM §4.5.6 */ 
  64:src/sys/devices.h **** struct STK_registers {
  65:src/sys/devices.h ****   uint32_t CTRL;
  66:src/sys/devices.h ****   uint32_t LOAD;
  67:src/sys/devices.h ****   uint32_t VAL;
  68:src/sys/devices.h ****   uint32_t CALIB;
  69:src/sys/devices.h **** };
  70:src/sys/devices.h **** 
  71:src/sys/devices.h **** /* PM §4.6 */ 
  72:src/sys/devices.h **** struct FPU_registers {
  73:src/sys/devices.h ****   __reserved(0x0);
  74:src/sys/devices.h ****   uint32_t CCR;
  75:src/sys/devices.h ****   uint32_t CAR;
  76:src/sys/devices.h ****   uint32_t DSCR;
  77:src/sys/devices.h **** };
  78:src/sys/devices.h **** 
  79:src/sys/devices.h **** 
  80:src/sys/devices.h **** /* RM §3.6.7 */ 
  81:src/sys/devices.h **** struct FLASH_registers {
  82:src/sys/devices.h ****   uint32_t ACR;
  83:src/sys/devices.h ****   uint32_t KEYR;
  84:src/sys/devices.h ****   uint32_t OPTKEYR;
  85:src/sys/devices.h ****   uint32_t SR;
  86:src/sys/devices.h ****   uint32_t CR;
  87:src/sys/devices.h ****   uint32_t OPTCR;  
  88:src/sys/devices.h **** };
  89:src/sys/devices.h **** 
  90:src/sys/devices.h **** /* RM §4.4.4 */
  91:src/sys/devices.h **** struct CRC_registers {
  92:src/sys/devices.h ****   uint32_t DR;
  93:src/sys/devices.h ****   uint32_t ICR;
  94:src/sys/devices.h ****   uint32_t CR;
  95:src/sys/devices.h **** };
  96:src/sys/devices.h **** 
  97:src/sys/devices.h **** /* RM §5.5 */
  98:src/sys/devices.h **** struct PWR_registers {
  99:src/sys/devices.h ****   uint32_t CR;
 100:src/sys/devices.h ****   uint32_t CSR;
 101:src/sys/devices.h **** };
 102:src/sys/devices.h **** 
 103:src/sys/devices.h **** /* RM §6.3.28 */
 104:src/sys/devices.h **** struct RCC_registers {
 105:src/sys/devices.h ****   uint32_t CR;
 106:src/sys/devices.h ****   uint32_t PLLCFGR;
 107:src/sys/devices.h ****   uint32_t CFGR;
 108:src/sys/devices.h ****   uint32_t CIR;
 109:src/sys/devices.h ****   uint32_t AHB1RSTR;
 110:src/sys/devices.h ****   uint32_t AHB2RSTR;
 111:src/sys/devices.h ****   uint32_t AHB3RSTR;
 112:src/sys/devices.h ****   __reserved(0x1c);
 113:src/sys/devices.h ****   uint32_t APB1RSTR;
 114:src/sys/devices.h ****   uint32_t APB2RSTR;
 115:src/sys/devices.h ****   __reserved(0x28);
 116:src/sys/devices.h ****   __reserved(0x2c);
 117:src/sys/devices.h ****   uint32_t AHB1ENR;
 118:src/sys/devices.h ****   uint32_t AHB2ENR;
 119:src/sys/devices.h ****   uint32_t AHB3ENR;
 120:src/sys/devices.h ****   __reserved(0x3c);
 121:src/sys/devices.h ****   uint32_t APB1ENR;
 122:src/sys/devices.h ****   uint32_t APB2ENR;
 123:src/sys/devices.h ****   __reserved(0x48);
 124:src/sys/devices.h ****   __reserved(0x4c);
 125:src/sys/devices.h ****   uint32_t AHB1LPENR;
 126:src/sys/devices.h ****   uint32_t AHB2LPENR;
 127:src/sys/devices.h ****   uint32_t AHB3LPENR;
 128:src/sys/devices.h ****   __reserved(0x5c);
 129:src/sys/devices.h ****   uint32_t APB1LPENR;
 130:src/sys/devices.h ****   uint32_t APB2LPENR;
 131:src/sys/devices.h ****   __reserved(0x68);
 132:src/sys/devices.h ****   __reserved(0x6c);
 133:src/sys/devices.h ****   uint32_t BDCR;
 134:src/sys/devices.h ****   uint32_t CSR;
 135:src/sys/devices.h ****   __reserved(0x78);
 136:src/sys/devices.h ****   __reserved(0x7c);
 137:src/sys/devices.h ****   uint32_t SSCGR;
 138:src/sys/devices.h ****   uint32_t PLLI2SCFGR;
 139:src/sys/devices.h ****   uint32_t PLLSAICFGR;
 140:src/sys/devices.h ****   uint32_t DCKCFGR;
 141:src/sys/devices.h ****   uint32_t CKGATENR;
 142:src/sys/devices.h ****   uint32_t DCKCFGR2;
 143:src/sys/devices.h **** };
 144:src/sys/devices.h **** 
 145:src/sys/devices.h **** /* RM §7.4.11 */
 146:src/sys/devices.h **** struct GPIO_registers {
 147:src/sys/devices.h ****   uint32_t MODER;
 148:src/sys/devices.h ****   uint32_t OTYPER;
 149:src/sys/devices.h ****   uint32_t OSPEEDR;
 150:src/sys/devices.h ****   uint32_t PUPDR;
 151:src/sys/devices.h ****   uint32_t IDR;
 152:src/sys/devices.h ****   uint32_t ODR;
 153:src/sys/devices.h ****   uint32_t BSRR;
 154:src/sys/devices.h ****   uint32_t LCKR;
 155:src/sys/devices.h ****   uint32_t AFRL;
 156:src/sys/devices.h ****   uint32_t AFRH;
 157:src/sys/devices.h **** };
 158:src/sys/devices.h **** 
 159:src/sys/devices.h **** /* RM §8.2.9 */
 160:src/sys/devices.h **** struct SYSCFG_registers {
 161:src/sys/devices.h ****   uint32_t MEMRMP;
 162:src/sys/devices.h ****   uint32_t PMC;
 163:src/sys/devices.h ****   uint32_t EXTICR1;
 164:src/sys/devices.h ****   uint32_t EXTICR2;
 165:src/sys/devices.h ****   uint32_t EXTICR3;
 166:src/sys/devices.h ****   uint32_t EXTICR4;
 167:src/sys/devices.h ****   __reserved(0x18);
 168:src/sys/devices.h ****   __reserved(0x1c);
 169:src/sys/devices.h ****   uint32_t CMPCR;
 170:src/sys/devices.h ****   __reserved(0x24);
 171:src/sys/devices.h ****   __reserved(0x28);
 172:src/sys/devices.h ****   uint32_t CFGR;
 173:src/sys/devices.h **** };
 174:src/sys/devices.h **** 
 175:src/sys/devices.h **** /* RM §9.5.11 */
 176:src/sys/devices.h **** struct DMA_Sx_registers {
 177:src/sys/devices.h ****   uint32_t CR;
 178:src/sys/devices.h ****   uint32_t NDTR;
 179:src/sys/devices.h ****   volatile void* PAR;
 180:src/sys/devices.h ****   volatile void* M0AR;
 181:src/sys/devices.h ****   volatile void* M1AR;
 182:src/sys/devices.h ****   uint32_t FCR;
 183:src/sys/devices.h **** };
 184:src/sys/devices.h **** struct DMA_registers {
 185:src/sys/devices.h ****   uint32_t LISR;
 186:src/sys/devices.h ****   uint32_t HISR;
 187:src/sys/devices.h ****   uint32_t LIFCR;
 188:src/sys/devices.h ****   uint32_t HIFCR;
 189:src/sys/devices.h ****   struct DMA_Sx_registers S[8];
 190:src/sys/devices.h **** };
 191:src/sys/devices.h **** 
 192:src/sys/devices.h **** /* RM §10.3.7 */
 193:src/sys/devices.h **** struct EXTI_registers {
 194:src/sys/devices.h ****   uint32_t IMR;
 195:src/sys/devices.h ****   uint32_t EMR;
 196:src/sys/devices.h ****   uint32_t RTSR;
 197:src/sys/devices.h ****   uint32_t FTSR;
 198:src/sys/devices.h ****   uint32_t SWIER;
 199:src/sys/devices.h ****   uint32_t PR;
 200:src/sys/devices.h **** };
 201:src/sys/devices.h **** 
 202:src/sys/devices.h **** /* RM §11.8 */
 203:src/sys/devices.h **** struct FMC_registers {
 204:src/sys/devices.h ****   uint32_t BCR1;
 205:src/sys/devices.h ****   uint32_t BCR2;
 206:src/sys/devices.h ****   uint32_t BCR3;
 207:src/sys/devices.h ****   uint32_t BCR4;
 208:src/sys/devices.h ****   uint32_t BTR1;
 209:src/sys/devices.h ****   uint32_t BTR2;
 210:src/sys/devices.h ****   uint32_t BTR3;
 211:src/sys/devices.h ****   uint32_t BTR4;
 212:src/sys/devices.h ****   uint32_t BWTR1;
 213:src/sys/devices.h ****   uint32_t BWTR2;
 214:src/sys/devices.h ****   uint32_t BWTR3;
 215:src/sys/devices.h ****   uint32_t BWTR4;
 216:src/sys/devices.h ****   uint32_t PCR;
 217:src/sys/devices.h ****   uint32_t SR;
 218:src/sys/devices.h ****   uint32_t PMEM;
 219:src/sys/devices.h ****   uint32_t PATT;
 220:src/sys/devices.h ****   uint32_t ECCR;
 221:src/sys/devices.h ****   uint32_t SDCR1;
 222:src/sys/devices.h ****   uint32_t SDCR2;
 223:src/sys/devices.h ****   uint32_t SDTR1;
 224:src/sys/devices.h ****   uint32_t SDTR2;
 225:src/sys/devices.h ****   uint32_t SDCMR;
 226:src/sys/devices.h ****   uint32_t SDRTR;
 227:src/sys/devices.h ****   uint32_t SDSR;
 228:src/sys/devices.h **** };
 229:src/sys/devices.h **** 
 230:src/sys/devices.h **** /* RM §12.5.14 */
 231:src/sys/devices.h **** struct QUADSPI_registers {
 232:src/sys/devices.h ****   uint32_t CR;
 233:src/sys/devices.h ****   uint32_t DCR;
 234:src/sys/devices.h ****   uint32_t SR;
 235:src/sys/devices.h ****   uint32_t FCR;
 236:src/sys/devices.h ****   uint32_t DLR;
 237:src/sys/devices.h ****   uint32_t CCR;
 238:src/sys/devices.h ****   uint32_t AR;
 239:src/sys/devices.h ****   uint32_t ABR;
 240:src/sys/devices.h ****   uint32_t DR;
 241:src/sys/devices.h ****   uint32_t PSMKR;
 242:src/sys/devices.h ****   uint32_t PSMAR;
 243:src/sys/devices.h ****   uint32_t PIR;
 244:src/sys/devices.h ****   uint32_t LPTR;
 245:src/sys/devices.h **** };
 246:src/sys/devices.h **** 
 247:src/sys/devices.h **** /* RM §13.13.18 */
 248:src/sys/devices.h **** struct ADCx_registers {
 249:src/sys/devices.h ****   uint32_t SR;
 250:src/sys/devices.h ****   uint32_t CR1;
 251:src/sys/devices.h ****   uint32_t CR2;
 252:src/sys/devices.h ****   uint32_t SMPR1;
 253:src/sys/devices.h ****   uint32_t SMPR2;
 254:src/sys/devices.h ****   uint32_t JOFR1;
 255:src/sys/devices.h ****   uint32_t JOFR2;
 256:src/sys/devices.h ****   uint32_t JOFR3;
 257:src/sys/devices.h ****   uint32_t JOFR4;
 258:src/sys/devices.h ****   uint32_t HTR;
 259:src/sys/devices.h ****   uint32_t LTR;
 260:src/sys/devices.h ****   uint32_t SQR1;
 261:src/sys/devices.h ****   uint32_t SQR2;
 262:src/sys/devices.h ****   uint32_t SQR3;
 263:src/sys/devices.h ****   uint32_t JSQR;
 264:src/sys/devices.h ****   uint32_t JDR1;
 265:src/sys/devices.h ****   uint32_t JDR2;
 266:src/sys/devices.h ****   uint32_t JDR3;
 267:src/sys/devices.h ****   uint32_t JDR4;
 268:src/sys/devices.h ****   uint32_t DR;
 269:src/sys/devices.h **** };
 270:src/sys/devices.h **** 
 271:src/sys/devices.h **** struct ADC_common_registers {
 272:src/sys/devices.h ****   uint32_t CSR;
 273:src/sys/devices.h ****   uint32_t CCR;
 274:src/sys/devices.h ****   uint32_t CDR;
 275:src/sys/devices.h **** };
 276:src/sys/devices.h **** 
 277:src/sys/devices.h **** 
 278:src/sys/devices.h **** /* RM §14.5.15 */
 279:src/sys/devices.h **** struct DAC_registers {
 280:src/sys/devices.h ****   uint32_t CR;
 281:src/sys/devices.h ****   uint32_t SWTRIGR;
 282:src/sys/devices.h ****   uint32_t DHR12R1;
 283:src/sys/devices.h ****   uint32_t DHR12L1;
 284:src/sys/devices.h ****   uint32_t DHR8R1;
 285:src/sys/devices.h ****   uint32_t DHR12R2;
 286:src/sys/devices.h ****   uint32_t DHR12L2;
 287:src/sys/devices.h ****   uint32_t DHR8R2;
 288:src/sys/devices.h ****   uint32_t DHR12RD;
 289:src/sys/devices.h ****   uint32_t DHR12LD;
 290:src/sys/devices.h ****   uint32_t DHR8RD;
 291:src/sys/devices.h ****   uint32_t DOR1;
 292:src/sys/devices.h ****   uint32_t DOR2;
 293:src/sys/devices.h ****   uint32_t SR;
 294:src/sys/devices.h **** };
 295:src/sys/devices.h **** 
 296:src/sys/devices.h **** /* RM §15.8.12 */
 297:src/sys/devices.h **** struct DCMI_registers {
 298:src/sys/devices.h ****   uint32_t CR;
 299:src/sys/devices.h ****   uint32_t SR;
 300:src/sys/devices.h ****   uint32_t RIS;
 301:src/sys/devices.h ****   uint32_t IER;
 302:src/sys/devices.h ****   uint32_t MIS;
 303:src/sys/devices.h ****   uint32_t ICR;
 304:src/sys/devices.h ****   uint32_t ESCR;
 305:src/sys/devices.h ****   uint32_t ESUR;
 306:src/sys/devices.h ****   uint32_t CWSTRT;
 307:src/sys/devices.h ****   uint32_t CWSIZE;
 308:src/sys/devices.h ****   uint32_t DR;
 309:src/sys/devices.h **** };
 310:src/sys/devices.h **** 
 311:src/sys/devices.h **** /* RM §16.4.21 TIM1,8 */
 312:src/sys/devices.h **** /* RM §17.4.21 TIM2,3,4,5 */
 313:src/sys/devices.h **** /* RM §18.4.13 TIM9,12 */
 314:src/sys/devices.h **** /* RM §18.5.1  TIM10,11,13,14 */
 315:src/sys/devices.h **** /* RM §19.4.9  TIM6,7 */
 316:src/sys/devices.h **** struct TIMx_registers {
 317:src/sys/devices.h ****   uint32_t CR1;
 318:src/sys/devices.h ****   uint32_t CR2;
 319:src/sys/devices.h ****   uint32_t SMCR;
 320:src/sys/devices.h ****   uint32_t DIER;
 321:src/sys/devices.h ****   uint32_t SR;
 322:src/sys/devices.h ****   uint32_t EGR;
 323:src/sys/devices.h ****   uint32_t CCMR1;
 324:src/sys/devices.h ****   uint32_t CCMR2;
 325:src/sys/devices.h ****   uint32_t CCER;
 326:src/sys/devices.h ****   uint32_t CNT;
 327:src/sys/devices.h ****   uint32_t PSC;
 328:src/sys/devices.h ****   uint32_t ARR;
 329:src/sys/devices.h ****   uint32_t RCR;
 330:src/sys/devices.h ****   uint32_t CCR1;
 331:src/sys/devices.h ****   uint32_t CCR2;
 332:src/sys/devices.h ****   uint32_t CCR3;
 333:src/sys/devices.h ****   uint32_t CCR4;
 334:src/sys/devices.h ****   uint32_t BDTR;
 335:src/sys/devices.h ****   uint32_t DCR;
 336:src/sys/devices.h ****   uint32_t DMAR;
 337:src/sys/devices.h ****   uint32_t OR;
 338:src/sys/devices.h **** };
 339:src/sys/devices.h **** 
 340:src/sys/devices.h **** /* RM §20.4.5 */
 341:src/sys/devices.h **** struct IWDG_registers {
 342:src/sys/devices.h ****   uint32_t KR;
 343:src/sys/devices.h ****   uint32_t PR;
 344:src/sys/devices.h ****   uint32_t RLR;
 345:src/sys/devices.h ****   uint32_t SR;
 346:src/sys/devices.h **** };
 347:src/sys/devices.h **** 
 348:src/sys/devices.h **** /* RM §21.6.4 */
 349:src/sys/devices.h **** struct WWDG_registers {
 350:src/sys/devices.h ****   uint32_t CR;
 351:src/sys/devices.h ****   uint32_t CFR;
 352:src/sys/devices.h ****   uint32_t SR;
 353:src/sys/devices.h **** };
 354:src/sys/devices.h **** 
 355:src/sys/devices.h **** /* RM §22.6.21 */
 356:src/sys/devices.h **** struct RTC_registers {
 357:src/sys/devices.h ****   uint32_t TR;
 358:src/sys/devices.h ****   uint32_t DR;
 359:src/sys/devices.h ****   uint32_t CR;
 360:src/sys/devices.h ****   uint32_t ISR;
 361:src/sys/devices.h ****   uint32_t PRER;
 362:src/sys/devices.h ****   uint32_t WUTR;
 363:src/sys/devices.h ****   uint32_t CALIBR;
 364:src/sys/devices.h ****   uint32_t ALRMAR;
 365:src/sys/devices.h ****   uint32_t ALRMBR;
 366:src/sys/devices.h ****   uint32_t WPR;
 367:src/sys/devices.h ****   uint32_t SSR;
 368:src/sys/devices.h ****   uint32_t SHIFTR;
 369:src/sys/devices.h ****   uint32_t TSTR;
 370:src/sys/devices.h ****   uint32_t TSSSR;
 371:src/sys/devices.h ****   uint32_t CALR;
 372:src/sys/devices.h ****   uint32_t TAFCR;
 373:src/sys/devices.h ****   uint32_t ALRMASSR;
 374:src/sys/devices.h ****   uint32_t ALRMBSSR;
 375:src/sys/devices.h ****   uint32_t BKPR[20];
 376:src/sys/devices.h **** };
 377:src/sys/devices.h **** 
 378:src/sys/devices.h **** /* RM §23.7.12 */
 379:src/sys/devices.h **** struct FMPI2C_registers {
 380:src/sys/devices.h ****   uint32_t CR1;
 381:src/sys/devices.h ****   uint32_t CR2;
 382:src/sys/devices.h ****   uint32_t OAR1;
 383:src/sys/devices.h ****   uint32_t OAR2;
 384:src/sys/devices.h ****   uint32_t TIMINGR;
 385:src/sys/devices.h ****   uint32_t TIMEOUTR;
 386:src/sys/devices.h ****   uint32_t ISR;
 387:src/sys/devices.h ****   uint32_t ICR;
 388:src/sys/devices.h ****   uint32_t PECR;
 389:src/sys/devices.h ****   uint32_t RXDR;
 390:src/sys/devices.h ****   uint32_t TXDR;
 391:src/sys/devices.h **** };
 392:src/sys/devices.h **** 
 393:src/sys/devices.h **** /* RM §24.6.14 */
 394:src/sys/devices.h **** struct I2C_registers {
 395:src/sys/devices.h ****   uint32_t CR1;
 396:src/sys/devices.h ****   uint32_t CR2;
 397:src/sys/devices.h ****   uint32_t OAR1;
 398:src/sys/devices.h ****   uint32_t OAR2;
 399:src/sys/devices.h ****   uint32_t DR;
 400:src/sys/devices.h ****   uint32_t SR1;
 401:src/sys/devices.h ****   uint32_t SR2;
 402:src/sys/devices.h ****   uint32_t CCR;
 403:src/sys/devices.h ****   uint32_t TRISE;
 404:src/sys/devices.h ****   uint32_t FLTR;
 405:src/sys/devices.h **** };
 406:src/sys/devices.h **** 
 407:src/sys/devices.h **** /* RM §25.6.8 */
 408:src/sys/devices.h **** struct USART_registers {
 409:src/sys/devices.h ****   uint32_t SR;
 410:src/sys/devices.h ****   uint32_t DR;
 411:src/sys/devices.h ****   uint32_t BRR;
 412:src/sys/devices.h ****   uint32_t CR1;
 413:src/sys/devices.h ****   uint32_t CR2;
 414:src/sys/devices.h ****   uint32_t CR3;
 415:src/sys/devices.h ****   uint32_t GTPR;
 416:src/sys/devices.h **** };
 417:src/sys/devices.h **** 
 418:src/sys/devices.h **** /* RM §26.7.10 */
 419:src/sys/devices.h **** struct SPI_I2S_registers {
 420:src/sys/devices.h ****   uint32_t CR1;
 421:src/sys/devices.h ****   uint32_t CR2;
 422:src/sys/devices.h ****   uint32_t SR;
 423:src/sys/devices.h ****   uint32_t DR;
 424:src/sys/devices.h ****   uint32_t CRCPR;
 425:src/sys/devices.h ****   uint32_t RXCRCR;
 426:src/sys/devices.h ****   uint32_t TXCRCR;
 427:src/sys/devices.h ****   uint32_t I2SCFGR;
 428:src/sys/devices.h ****   uint32_t I2SPR;
 429:src/sys/devices.h **** };
 430:src/sys/devices.h **** 
 431:src/sys/devices.h **** /* RM §27.5.10 */
 432:src/sys/devices.h **** struct SPDIFRX_registers {
 433:src/sys/devices.h ****   uint32_t CR;
 434:src/sys/devices.h ****   uint32_t IMR;
 435:src/sys/devices.h ****   uint32_t SR;
 436:src/sys/devices.h ****   uint32_t IFCR;
 437:src/sys/devices.h ****   uint32_t DR;
 438:src/sys/devices.h ****   uint32_t CSR;
 439:src/sys/devices.h ****   uint32_t DIR;
 440:src/sys/devices.h **** };
 441:src/sys/devices.h **** 
 442:src/sys/devices.h **** /* RM §28.5.10 */
 443:src/sys/devices.h **** struct SAI_x_registers {
 444:src/sys/devices.h ****   uint32_t CR1;
 445:src/sys/devices.h ****   uint32_t CR2;
 446:src/sys/devices.h ****   uint32_t FRCR;
 447:src/sys/devices.h ****   uint32_t SLOTR;
 448:src/sys/devices.h ****   uint32_t IM;
 449:src/sys/devices.h ****   uint32_t SR;
 450:src/sys/devices.h ****   uint32_t CLRFR;
 451:src/sys/devices.h ****   uint32_t DR;
 452:src/sys/devices.h **** };
 453:src/sys/devices.h **** 
 454:src/sys/devices.h **** struct SAI_registers {
 455:src/sys/devices.h ****   uint32_t GCR;
 456:src/sys/devices.h ****   struct SAI_x_registers A;
 457:src/sys/devices.h ****   struct SAI_x_registers B;
 458:src/sys/devices.h **** };
 459:src/sys/devices.h **** 
 460:src/sys/devices.h **** /* RM §29.8.16 */
 461:src/sys/devices.h **** struct SDIO_registers {
 462:src/sys/devices.h ****   uint32_t POWER;
 463:src/sys/devices.h ****   uint32_t CLKCR;
 464:src/sys/devices.h ****   uint32_t CMD;
 465:src/sys/devices.h ****   uint32_t RESPCMD;
 466:src/sys/devices.h ****   uint32_t RESP1;
 467:src/sys/devices.h ****   uint32_t RESP2;
 468:src/sys/devices.h ****   uint32_t RESP3;
 469:src/sys/devices.h ****   uint32_t RESP4;
 470:src/sys/devices.h ****   uint32_t DTIMER;
 471:src/sys/devices.h ****   uint32_t DLEN;
 472:src/sys/devices.h ****   uint32_t DCTRL;
 473:src/sys/devices.h ****   uint32_t DCOUNT;
 474:src/sys/devices.h ****   uint32_t STA;
 475:src/sys/devices.h ****   uint32_t ICR;
 476:src/sys/devices.h ****   uint32_t MASK;
 477:src/sys/devices.h ****   __reserved(0x40);
 478:src/sys/devices.h ****   __reserved(0x44);
 479:src/sys/devices.h ****   uint32_t FIFOCNT;
 480:src/sys/devices.h ****   __reserved_interval(0x4c,0x80);
 481:src/sys/devices.h ****   uint32_t FIFO[32];
 482:src/sys/devices.h **** };
 483:src/sys/devices.h ****   
 484:src/sys/devices.h **** /* RM §30.9.5 */
 485:src/sys/devices.h **** struct bxCAN_TxRx_registers {
 486:src/sys/devices.h ****   uint32_t IR;
 487:src/sys/devices.h ****   uint32_t DTR;
 488:src/sys/devices.h ****   uint32_t DLR;
 489:src/sys/devices.h ****   uint32_t DHR;
 490:src/sys/devices.h **** };
 491:src/sys/devices.h **** 
 492:src/sys/devices.h **** struct bxCAN_registers {
 493:src/sys/devices.h ****   uint32_t MCR;
 494:src/sys/devices.h ****   uint32_t MSR;
 495:src/sys/devices.h ****   uint32_t TSR;
 496:src/sys/devices.h ****   uint32_t RF0R;
 497:src/sys/devices.h ****   uint32_t RF1R;
 498:src/sys/devices.h ****   uint32_t IER;
 499:src/sys/devices.h ****   uint32_t ESR;
 500:src/sys/devices.h ****   uint32_t BTR;
 501:src/sys/devices.h ****   __reserved_interval(0x20,0x180);
 502:src/sys/devices.h ****   struct bxCAN_TxRx_registers Tx[3];
 503:src/sys/devices.h ****   struct bxCAN_TxRx_registers Rx[2];
 504:src/sys/devices.h ****   __reserved_interval(0x1d0,0x200);
 505:src/sys/devices.h ****   uint32_t FMR;
 506:src/sys/devices.h ****   uint32_t FM1R;
 507:src/sys/devices.h ****   __reserved(0x208);
 508:src/sys/devices.h ****   uint32_t FS1R;
 509:src/sys/devices.h ****   __reserved(0x210);
 510:src/sys/devices.h ****   uint32_t FFA1R;
 511:src/sys/devices.h ****   __reserved(0x218);
 512:src/sys/devices.h ****   uint32_t FA1R;
 513:src/sys/devices.h ****   __reserved_interval(0x220,0x240);
 514:src/sys/devices.h ****   struct {uint32_t R1; uint32_t R2;} F[28];
 515:src/sys/devices.h **** };
 516:src/sys/devices.h **** 
 517:src/sys/devices.h **** /* RM §32.7.7 */
 518:src/sys/devices.h **** struct OTG_registers {
 519:src/sys/devices.h ****    /* TODO */
 520:src/sys/devices.h **** };
 521:src/sys/devices.h **** 
 522:src/sys/devices.h **** /* RM §32.7.7 */
 523:src/sys/devices.h **** struct HDMI_CEC_registers {
 524:src/sys/devices.h ****   uint32_t CR;
 525:src/sys/devices.h ****   uint32_t CFGR;
 526:src/sys/devices.h ****   uint32_t TXDR;
 527:src/sys/devices.h ****   uint32_t RXDR;
 528:src/sys/devices.h ****   uint32_t ISR;
 529:src/sys/devices.h ****   uint32_t IER;
 530:src/sys/devices.h **** };
 531:src/sys/devices.h **** 
 532:src/sys/devices.h **** /* RM §33.18 */
 533:src/sys/devices.h **** struct DBGMCU_registers {
 534:src/sys/devices.h ****   uint32_t IDCODE;
 535:src/sys/devices.h ****   uint32_t CR;
 536:src/sys/devices.h ****   uint32_t APB1FZ;
 537:src/sys/devices.h ****   uint32_t APB2FZ;
 538:src/sys/devices.h **** };
 539:src/sys/devices.h **** 
 540:src/sys/devices.h **** /* Constant values */
 541:src/sys/devices.h **** 
 542:src/sys/devices.h **** extern const uint16_t Package_data;
 543:src/sys/devices.h **** extern const uint16_t TS_CAL2;
 544:src/sys/devices.h **** extern const uint16_t TS_CAL1;
 545:src/sys/devices.h **** extern const uint16_t VREFIN_CAL;
 546:src/sys/devices.h **** extern const uint16_t Flash_size;
 547:src/sys/devices.h **** extern const uint32_t U_ID[3];
 548:src/sys/devices.h **** 
 549:src/sys/devices.h **** /* Core Devices base addresses */
 550:src/sys/devices.h **** 
 551:src/sys/devices.h **** extern volatile struct DBGMCU_registers DBG;
 552:src/sys/devices.h **** 
 553:src/sys/devices.h **** extern volatile struct FPU_registers FPU;
 554:src/sys/devices.h **** extern volatile uint32_t NVIC_STIR;
 555:src/sys/devices.h **** extern volatile struct MPU_registers MPU;
 556:src/sys/devices.h **** extern volatile uint32_t FPU_CPACR;
 557:src/sys/devices.h **** extern volatile struct SCB_registers SCB;
 558:src/sys/devices.h **** extern volatile struct NVIC_registers NVIC;
 559:src/sys/devices.h **** extern volatile struct STK_registers SysTick;
 560:src/sys/devices.h **** 
 561:src/sys/devices.h **** /* Devices base addresses */
 562:src/sys/devices.h **** 
 563:src/sys/devices.h **** extern volatile struct QUADSPI_registers QUADSPI;
 564:src/sys/devices.h **** 
 565:src/sys/devices.h **** extern volatile struct DCMI_registers DCMI;
 566:src/sys/devices.h **** extern volatile struct OTG_registers USB_OTG_FS;
 567:src/sys/devices.h **** 
 568:src/sys/devices.h **** extern volatile struct OTG_registers USB_OTG_HS;
 569:src/sys/devices.h **** extern volatile struct DMA_registers DMA2;
 570:src/sys/devices.h **** extern volatile struct DMA_registers DMA1;
 571:src/sys/devices.h **** extern uint32_t BKPSRAM[1024];
 572:src/sys/devices.h **** extern volatile struct FLASH_registers FLASH;
 573:src/sys/devices.h **** extern volatile struct RCC_registers RCC;
 574:src/sys/devices.h **** extern volatile struct CRC_registers CRC;
 575:src/sys/devices.h **** extern volatile struct GPIO_registers GPIOH;
 576:src/sys/devices.h **** extern volatile struct GPIO_registers GPIOG;
 577:src/sys/devices.h **** extern volatile struct GPIO_registers GPIOF;
 578:src/sys/devices.h **** extern volatile struct GPIO_registers GPIOE;
 579:src/sys/devices.h **** extern volatile struct GPIO_registers GPIOD;
 580:src/sys/devices.h **** extern volatile struct GPIO_registers GPIOC;
 581:src/sys/devices.h **** extern volatile struct GPIO_registers GPIOB;
 582:src/sys/devices.h **** extern volatile struct GPIO_registers GPIOA;
 583:src/sys/devices.h **** 
 584:src/sys/devices.h **** extern volatile struct SAI_registers SAI2;
 585:src/sys/devices.h **** extern volatile struct SAI_registers SAI1;
 586:src/sys/devices.h **** 
 587:src/sys/devices.h **** extern volatile struct TIMx_registers TIM11;
 588:src/sys/devices.h **** extern volatile struct TIMx_registers TIM10;
 589:src/sys/devices.h **** extern volatile struct TIMx_registers TIM9;
 590:src/sys/devices.h **** extern volatile struct EXTI_registers EXTI;
 591:src/sys/devices.h **** extern volatile struct SYSCFG_registers SYSCFG;
 592:src/sys/devices.h **** extern volatile struct SPI_registers SPI4;
 593:src/sys/devices.h **** extern volatile struct SPI_registers SPI1;
 594:src/sys/devices.h **** extern volatile struct SDIO_registers SDMMC;
 595:src/sys/devices.h **** extern volatile struct ADCx_registers ADC1;
 596:src/sys/devices.h **** extern volatile struct ADCx_registers ADC2;
 597:src/sys/devices.h **** extern volatile struct ADCx_registers ADC3;
 598:src/sys/devices.h **** extern volatile struct ADC_common_registers ADC_common;
 599:src/sys/devices.h **** extern volatile struct USART_registers USART6;
 600:src/sys/devices.h **** extern volatile struct USART_registers USART1;
 601:src/sys/devices.h **** extern volatile struct TIMx_registers TIM8;
 602:src/sys/devices.h **** extern volatile struct TIMx_registers TIM1;
 603:src/sys/devices.h **** 
 604:src/sys/devices.h **** extern volatile struct DAC_registers DAC;
 605:src/sys/devices.h **** extern volatile struct PWR_registers PWR;
 606:src/sys/devices.h **** extern volatile struct HDMI_CEC_registers HDMI_CEC;
 607:src/sys/devices.h **** extern volatile struct bxCAN_registers CAN2;
 608:src/sys/devices.h **** extern volatile struct bxCAN_registers CAN1;
 609:src/sys/devices.h **** extern volatile struct FMPI2C_registers FMPI2C1;
 610:src/sys/devices.h **** extern volatile struct I2C_registers I2C3;
 611:src/sys/devices.h **** extern volatile struct I2C_registers I2C2;
 612:src/sys/devices.h **** extern volatile struct I2C_registers I2C1;
 613:src/sys/devices.h **** extern volatile struct USART_registers UART5;
 614:src/sys/devices.h **** extern volatile struct USART_registers UART4;
 615:src/sys/devices.h **** extern volatile struct USART_registers USART3;
 616:src/sys/devices.h **** extern volatile struct USART_registers USART2;
 617:src/sys/devices.h **** extern volatile struct SPDIF_RX_registers SPDIF_RX;
 618:src/sys/devices.h **** extern volatile struct SPI_I2S_registers SPI3_I2S3;
 619:src/sys/devices.h **** extern volatile struct SPI_I2S_registers SPI2_I2S2;
 620:src/sys/devices.h **** extern volatile struct IWDG_registers IWDG;
 621:src/sys/devices.h **** extern volatile struct WWDG_registers WWDG;
 622:src/sys/devices.h **** extern volatile struct RTC_registers RTC_BKP;
 623:src/sys/devices.h **** extern volatile struct TIMx_registers TIM14;
 624:src/sys/devices.h **** extern volatile struct TIMx_registers TIM13;
 625:src/sys/devices.h **** extern volatile struct TIMx_registers TIM12;
 626:src/sys/devices.h **** extern volatile struct TIMx_registers TIM7;
 627:src/sys/devices.h **** extern volatile struct TIMx_registers TIM6;
 628:src/sys/devices.h **** extern volatile struct TIMx_registers TIM5;
 629:src/sys/devices.h **** extern volatile struct TIMx_registers TIM4;
 630:src/sys/devices.h **** extern volatile struct TIMx_registers TIM3;
 631:src/sys/devices.h **** extern volatile struct TIMx_registers TIM2;
 632:src/sys/devices.h **** 
 633:src/sys/devices.h **** #define __set_bit(_w,_i) ((_w)|=(1<<(_i)))
 634:src/sys/devices.h **** #define __clr_bit(_w,_i) ((_w) &= ~(1<<(_i)))
 635:src/sys/devices.h **** #define __really_inline__ static inline __attribute__((always_inline)) 
 636:src/sys/devices.h **** #define __sync __DSB
 637:src/sys/devices.h **** 
 638:src/sys/devices.h **** #define __declare_device_control(name,bus,bus_bit) \
 639:src/sys/devices.h ****   void __really_inline__ enable_##name() { \
 640:src/sys/devices.h ****     __set_bit(RCC.bus##ENR,bus_bit); __sync(); } \
 641:src/sys/devices.h ****   void __really_inline__ low_power_enable_##name() { \
 642:src/sys/devices.h ****     __set_bit(RCC.bus##LPENR,bus_bit); __sync(); } \
 643:src/sys/devices.h ****   void __really_inline__ disable_##name() { \
 644:src/sys/devices.h ****     __clr_bit(RCC.bus##ENR,bus_bit); __sync(); } \
 645:src/sys/devices.h ****   void __really_inline__ low_power_disable_## name() { \
 646:src/sys/devices.h ****     __clr_bit(RCC.bus##LPENR,bus_bit); __sync(); } \
 647:src/sys/devices.h ****   void __really_inline__ reset_##name() { \
 648:src/sys/devices.h ****     __set_bit(RCC.bus##RSTR,bus_bit); __sync(); } \
 649:src/sys/devices.h **** \
 650:src/sys/devices.h **** 
 651:src/sys/devices.h **** /* __declare_device_control(FMC,AHB3,0) FMC not available in LQFP64 package */
 652:src/sys/devices.h **** __declare_device_control(QUADSPI,AHB3,1)
 653:src/sys/devices.h **** 
 654:src/sys/devices.h **** __declare_device_control(DCMI,AHB2,0)
 655:src/sys/devices.h **** __declare_device_control(USB_OTG_FS,AHB2,7)
 656:src/sys/devices.h **** 
 657:src/sys/devices.h **** __declare_device_control(USB_OTG_HS,AHB1,29)
 658:src/sys/devices.h **** __declare_device_control(DMA2,AHB1,22)
 659:src/sys/devices.h **** __declare_device_control(DMA1,AHB1,21)
 660:src/sys/devices.h **** __declare_device_control(CRC,AHB1,12)
 661:src/sys/devices.h **** __declare_device_control(GPIOH,AHB1,7)
 662:src/sys/devices.h **** __declare_device_control(GPIOG,AHB1,6)
 663:src/sys/devices.h **** __declare_device_control(GPIOF,AHB1,5)
 664:src/sys/devices.h **** __declare_device_control(GPIOE,AHB1,4)
 665:src/sys/devices.h **** __declare_device_control(GPIOD,AHB1,3)
 666:src/sys/devices.h **** __declare_device_control(GPIOC,AHB1,2)
 667:src/sys/devices.h **** __declare_device_control(GPIOB,AHB1,1)
 668:src/sys/devices.h **** __declare_device_control(GPIOA,AHB1,0)
  37              		.loc 2 668 1 view .LVU2
  38              	.LBB15:
  39              		.loc 2 668 1 view .LVU3
  40 0000 0A4A     		ldr	r2, .L2
  41 0002 136B     		ldr	r3, [r2, #48]
  42 0004 43F00103 		orr	r3, r3, #1
  43 0008 1363     		str	r3, [r2, #48]
  44              		.loc 2 668 1 view .LVU4
  45              	.LBB16:
  46              	.LBI16:
  47              		.file 3 "src/sys/cmsis_gcc.h"
   1:src/sys/cmsis_gcc.h **** /**************************************************************************//**
   2:src/sys/cmsis_gcc.h ****  * @file     cmsis_gcc.h
   3:src/sys/cmsis_gcc.h ****  * @brief    CMSIS Cortex-M Core Function/Instruction Header File
   4:src/sys/cmsis_gcc.h ****  * @version  V4.30
   5:src/sys/cmsis_gcc.h ****  * @date     20. October 2015
   6:src/sys/cmsis_gcc.h ****  ******************************************************************************/
   7:src/sys/cmsis_gcc.h **** /* Copyright (c) 2009 - 2015 ARM LIMITED
   8:src/sys/cmsis_gcc.h **** 
   9:src/sys/cmsis_gcc.h ****    All rights reserved.
  10:src/sys/cmsis_gcc.h ****    Redistribution and use in source and binary forms, with or without
  11:src/sys/cmsis_gcc.h ****    modification, are permitted provided that the following conditions are met:
  12:src/sys/cmsis_gcc.h ****    - Redistributions of source code must retain the above copyright
  13:src/sys/cmsis_gcc.h ****      notice, this list of conditions and the following disclaimer.
  14:src/sys/cmsis_gcc.h ****    - Redistributions in binary form must reproduce the above copyright
  15:src/sys/cmsis_gcc.h ****      notice, this list of conditions and the following disclaimer in the
  16:src/sys/cmsis_gcc.h ****      documentation and/or other materials provided with the distribution.
  17:src/sys/cmsis_gcc.h ****    - Neither the name of ARM nor the names of its contributors may be used
  18:src/sys/cmsis_gcc.h ****      to endorse or promote products derived from this software without
  19:src/sys/cmsis_gcc.h ****      specific prior written permission.
  20:src/sys/cmsis_gcc.h ****    *
  21:src/sys/cmsis_gcc.h ****    THIS SOFTWARE IS PROVIDED BY THE COPYRIGHT HOLDERS AND CONTRIBUTORS "AS IS"
  22:src/sys/cmsis_gcc.h ****    AND ANY EXPRESS OR IMPLIED WARRANTIES, INCLUDING, BUT NOT LIMITED TO, THE
  23:src/sys/cmsis_gcc.h ****    IMPLIED WARRANTIES OF MERCHANTABILITY AND FITNESS FOR A PARTICULAR PURPOSE
  24:src/sys/cmsis_gcc.h ****    ARE DISCLAIMED. IN NO EVENT SHALL COPYRIGHT HOLDERS AND CONTRIBUTORS BE
  25:src/sys/cmsis_gcc.h ****    LIABLE FOR ANY DIRECT, INDIRECT, INCIDENTAL, SPECIAL, EXEMPLARY, OR
  26:src/sys/cmsis_gcc.h ****    CONSEQUENTIAL DAMAGES (INCLUDING, BUT NOT LIMITED TO, PROCUREMENT OF
  27:src/sys/cmsis_gcc.h ****    SUBSTITUTE GOODS OR SERVICES; LOSS OF USE, DATA, OR PROFITS; OR BUSINESS
  28:src/sys/cmsis_gcc.h ****    INTERRUPTION) HOWEVER CAUSED AND ON ANY THEORY OF LIABILITY, WHETHER IN
  29:src/sys/cmsis_gcc.h ****    CONTRACT, STRICT LIABILITY, OR TORT (INCLUDING NEGLIGENCE OR OTHERWISE)
  30:src/sys/cmsis_gcc.h ****    ARISING IN ANY WAY OUT OF THE USE OF THIS SOFTWARE, EVEN IF ADVISED OF THE
  31:src/sys/cmsis_gcc.h ****    POSSIBILITY OF SUCH DAMAGE.
  32:src/sys/cmsis_gcc.h ****    ---------------------------------------------------------------------------*/
  33:src/sys/cmsis_gcc.h **** 
  34:src/sys/cmsis_gcc.h **** #ifndef __CMSIS_GCC_H
  35:src/sys/cmsis_gcc.h **** #define __CMSIS_GCC_H
  36:src/sys/cmsis_gcc.h **** 
  37:src/sys/cmsis_gcc.h **** /* ignore some GCC warnings */
  38:src/sys/cmsis_gcc.h **** #if defined ( __GNUC__ )
  39:src/sys/cmsis_gcc.h **** #pragma GCC diagnostic push
  40:src/sys/cmsis_gcc.h **** #pragma GCC diagnostic ignored "-Wsign-conversion"
  41:src/sys/cmsis_gcc.h **** #pragma GCC diagnostic ignored "-Wconversion"
  42:src/sys/cmsis_gcc.h **** #pragma GCC diagnostic ignored "-Wunused-parameter"
  43:src/sys/cmsis_gcc.h **** #endif
  44:src/sys/cmsis_gcc.h **** 
  45:src/sys/cmsis_gcc.h **** 
  46:src/sys/cmsis_gcc.h **** /* ###########################  Core Function Access  ########################### */
  47:src/sys/cmsis_gcc.h **** /** \ingroup  CMSIS_Core_FunctionInterface
  48:src/sys/cmsis_gcc.h ****     \defgroup CMSIS_Core_RegAccFunctions CMSIS Core Register Access Functions
  49:src/sys/cmsis_gcc.h ****   @{
  50:src/sys/cmsis_gcc.h ****  */
  51:src/sys/cmsis_gcc.h **** 
  52:src/sys/cmsis_gcc.h **** /**
  53:src/sys/cmsis_gcc.h ****   \brief   Enable IRQ Interrupts
  54:src/sys/cmsis_gcc.h ****   \details Enables IRQ interrupts by clearing the I-bit in the CPSR.
  55:src/sys/cmsis_gcc.h ****            Can only be executed in Privileged modes.
  56:src/sys/cmsis_gcc.h ****  */
  57:src/sys/cmsis_gcc.h **** __attribute__( ( always_inline ) ) __STATIC_INLINE void __enable_irq(void)
  58:src/sys/cmsis_gcc.h **** {
  59:src/sys/cmsis_gcc.h ****   __ASM volatile ("cpsie i" : : : "memory");
  60:src/sys/cmsis_gcc.h **** }
  61:src/sys/cmsis_gcc.h **** 
  62:src/sys/cmsis_gcc.h **** 
  63:src/sys/cmsis_gcc.h **** /**
  64:src/sys/cmsis_gcc.h ****   \brief   Disable IRQ Interrupts
  65:src/sys/cmsis_gcc.h ****   \details Disables IRQ interrupts by setting the I-bit in the CPSR.
  66:src/sys/cmsis_gcc.h ****   Can only be executed in Privileged modes.
  67:src/sys/cmsis_gcc.h ****  */
  68:src/sys/cmsis_gcc.h **** __attribute__( ( always_inline ) ) __STATIC_INLINE void __disable_irq(void)
  69:src/sys/cmsis_gcc.h **** {
  70:src/sys/cmsis_gcc.h ****   __ASM volatile ("cpsid i" : : : "memory");
  71:src/sys/cmsis_gcc.h **** }
  72:src/sys/cmsis_gcc.h **** 
  73:src/sys/cmsis_gcc.h **** 
  74:src/sys/cmsis_gcc.h **** /**
  75:src/sys/cmsis_gcc.h ****   \brief   Get Control Register
  76:src/sys/cmsis_gcc.h ****   \details Returns the content of the Control Register.
  77:src/sys/cmsis_gcc.h ****   \return               Control Register value
  78:src/sys/cmsis_gcc.h ****  */
  79:src/sys/cmsis_gcc.h **** __attribute__( ( always_inline ) ) __STATIC_INLINE uint32_t __get_CONTROL(void)
  80:src/sys/cmsis_gcc.h **** {
  81:src/sys/cmsis_gcc.h ****   uint32_t result;
  82:src/sys/cmsis_gcc.h **** 
  83:src/sys/cmsis_gcc.h ****   __ASM volatile ("MRS %0, control" : "=r" (result) );
  84:src/sys/cmsis_gcc.h ****   return(result);
  85:src/sys/cmsis_gcc.h **** }
  86:src/sys/cmsis_gcc.h **** 
  87:src/sys/cmsis_gcc.h **** 
  88:src/sys/cmsis_gcc.h **** /**
  89:src/sys/cmsis_gcc.h ****   \brief   Set Control Register
  90:src/sys/cmsis_gcc.h ****   \details Writes the given value to the Control Register.
  91:src/sys/cmsis_gcc.h ****   \param [in]    control  Control Register value to set
  92:src/sys/cmsis_gcc.h ****  */
  93:src/sys/cmsis_gcc.h **** __attribute__( ( always_inline ) ) __STATIC_INLINE void __set_CONTROL(uint32_t control)
  94:src/sys/cmsis_gcc.h **** {
  95:src/sys/cmsis_gcc.h ****   __ASM volatile ("MSR control, %0" : : "r" (control) : "memory");
  96:src/sys/cmsis_gcc.h **** }
  97:src/sys/cmsis_gcc.h **** 
  98:src/sys/cmsis_gcc.h **** 
  99:src/sys/cmsis_gcc.h **** /**
 100:src/sys/cmsis_gcc.h ****   \brief   Get IPSR Register
 101:src/sys/cmsis_gcc.h ****   \details Returns the content of the IPSR Register.
 102:src/sys/cmsis_gcc.h ****   \return               IPSR Register value
 103:src/sys/cmsis_gcc.h ****  */
 104:src/sys/cmsis_gcc.h **** __attribute__( ( always_inline ) ) __STATIC_INLINE uint32_t __get_IPSR(void)
 105:src/sys/cmsis_gcc.h **** {
 106:src/sys/cmsis_gcc.h ****   uint32_t result;
 107:src/sys/cmsis_gcc.h **** 
 108:src/sys/cmsis_gcc.h ****   __ASM volatile ("MRS %0, ipsr" : "=r" (result) );
 109:src/sys/cmsis_gcc.h ****   return(result);
 110:src/sys/cmsis_gcc.h **** }
 111:src/sys/cmsis_gcc.h **** 
 112:src/sys/cmsis_gcc.h **** 
 113:src/sys/cmsis_gcc.h **** /**
 114:src/sys/cmsis_gcc.h ****   \brief   Get APSR Register
 115:src/sys/cmsis_gcc.h ****   \details Returns the content of the APSR Register.
 116:src/sys/cmsis_gcc.h ****   \return               APSR Register value
 117:src/sys/cmsis_gcc.h ****  */
 118:src/sys/cmsis_gcc.h **** __attribute__( ( always_inline ) ) __STATIC_INLINE uint32_t __get_APSR(void)
 119:src/sys/cmsis_gcc.h **** {
 120:src/sys/cmsis_gcc.h ****   uint32_t result;
 121:src/sys/cmsis_gcc.h **** 
 122:src/sys/cmsis_gcc.h ****   __ASM volatile ("MRS %0, apsr" : "=r" (result) );
 123:src/sys/cmsis_gcc.h ****   return(result);
 124:src/sys/cmsis_gcc.h **** }
 125:src/sys/cmsis_gcc.h **** 
 126:src/sys/cmsis_gcc.h **** 
 127:src/sys/cmsis_gcc.h **** /**
 128:src/sys/cmsis_gcc.h ****   \brief   Get xPSR Register
 129:src/sys/cmsis_gcc.h ****   \details Returns the content of the xPSR Register.
 130:src/sys/cmsis_gcc.h **** 
 131:src/sys/cmsis_gcc.h ****     \return               xPSR Register value
 132:src/sys/cmsis_gcc.h ****  */
 133:src/sys/cmsis_gcc.h **** __attribute__( ( always_inline ) ) __STATIC_INLINE uint32_t __get_xPSR(void)
 134:src/sys/cmsis_gcc.h **** {
 135:src/sys/cmsis_gcc.h ****   uint32_t result;
 136:src/sys/cmsis_gcc.h **** 
 137:src/sys/cmsis_gcc.h ****   __ASM volatile ("MRS %0, xpsr" : "=r" (result) );
 138:src/sys/cmsis_gcc.h ****   return(result);
 139:src/sys/cmsis_gcc.h **** }
 140:src/sys/cmsis_gcc.h **** 
 141:src/sys/cmsis_gcc.h **** 
 142:src/sys/cmsis_gcc.h **** /**
 143:src/sys/cmsis_gcc.h ****   \brief   Get Process Stack Pointer
 144:src/sys/cmsis_gcc.h ****   \details Returns the current value of the Process Stack Pointer (PSP).
 145:src/sys/cmsis_gcc.h ****   \return               PSP Register value
 146:src/sys/cmsis_gcc.h ****  */
 147:src/sys/cmsis_gcc.h **** __attribute__( ( always_inline ) ) __STATIC_INLINE uint32_t __get_PSP(void)
 148:src/sys/cmsis_gcc.h **** {
 149:src/sys/cmsis_gcc.h ****   register uint32_t result;
 150:src/sys/cmsis_gcc.h **** 
 151:src/sys/cmsis_gcc.h ****   __ASM volatile ("MRS %0, psp\n"  : "=r" (result) );
 152:src/sys/cmsis_gcc.h ****   return(result);
 153:src/sys/cmsis_gcc.h **** }
 154:src/sys/cmsis_gcc.h **** 
 155:src/sys/cmsis_gcc.h **** 
 156:src/sys/cmsis_gcc.h **** /**
 157:src/sys/cmsis_gcc.h ****   \brief   Set Process Stack Pointer
 158:src/sys/cmsis_gcc.h ****   \details Assigns the given value to the Process Stack Pointer (PSP).
 159:src/sys/cmsis_gcc.h ****   \param [in]    topOfProcStack  Process Stack Pointer value to set
 160:src/sys/cmsis_gcc.h ****  */
 161:src/sys/cmsis_gcc.h **** __attribute__( ( always_inline ) ) __STATIC_INLINE void __set_PSP(uint32_t topOfProcStack)
 162:src/sys/cmsis_gcc.h **** {
 163:src/sys/cmsis_gcc.h ****   __ASM volatile ("MSR psp, %0\n" : : "r" (topOfProcStack) : "sp");
 164:src/sys/cmsis_gcc.h **** }
 165:src/sys/cmsis_gcc.h **** 
 166:src/sys/cmsis_gcc.h **** 
 167:src/sys/cmsis_gcc.h **** /**
 168:src/sys/cmsis_gcc.h ****   \brief   Get Main Stack Pointer
 169:src/sys/cmsis_gcc.h ****   \details Returns the current value of the Main Stack Pointer (MSP).
 170:src/sys/cmsis_gcc.h ****   \return               MSP Register value
 171:src/sys/cmsis_gcc.h ****  */
 172:src/sys/cmsis_gcc.h **** __attribute__( ( always_inline ) ) __STATIC_INLINE uint32_t __get_MSP(void)
 173:src/sys/cmsis_gcc.h **** {
 174:src/sys/cmsis_gcc.h ****   register uint32_t result;
 175:src/sys/cmsis_gcc.h **** 
 176:src/sys/cmsis_gcc.h ****   __ASM volatile ("MRS %0, msp\n" : "=r" (result) );
 177:src/sys/cmsis_gcc.h ****   return(result);
 178:src/sys/cmsis_gcc.h **** }
 179:src/sys/cmsis_gcc.h **** 
 180:src/sys/cmsis_gcc.h **** 
 181:src/sys/cmsis_gcc.h **** /**
 182:src/sys/cmsis_gcc.h ****   \brief   Set Main Stack Pointer
 183:src/sys/cmsis_gcc.h ****   \details Assigns the given value to the Main Stack Pointer (MSP).
 184:src/sys/cmsis_gcc.h **** 
 185:src/sys/cmsis_gcc.h ****     \param [in]    topOfMainStack  Main Stack Pointer value to set
 186:src/sys/cmsis_gcc.h ****  */
 187:src/sys/cmsis_gcc.h **** __attribute__( ( always_inline ) ) __STATIC_INLINE void __set_MSP(uint32_t topOfMainStack)
 188:src/sys/cmsis_gcc.h **** {
 189:src/sys/cmsis_gcc.h ****   __ASM volatile ("MSR msp, %0\n" : : "r" (topOfMainStack) : "sp");
 190:src/sys/cmsis_gcc.h **** }
 191:src/sys/cmsis_gcc.h **** 
 192:src/sys/cmsis_gcc.h **** 
 193:src/sys/cmsis_gcc.h **** /**
 194:src/sys/cmsis_gcc.h ****   \brief   Get Priority Mask
 195:src/sys/cmsis_gcc.h ****   \details Returns the current state of the priority mask bit from the Priority Mask Register.
 196:src/sys/cmsis_gcc.h ****   \return               Priority Mask value
 197:src/sys/cmsis_gcc.h ****  */
 198:src/sys/cmsis_gcc.h **** __attribute__( ( always_inline ) ) __STATIC_INLINE uint32_t __get_PRIMASK(void)
 199:src/sys/cmsis_gcc.h **** {
 200:src/sys/cmsis_gcc.h ****   uint32_t result;
 201:src/sys/cmsis_gcc.h **** 
 202:src/sys/cmsis_gcc.h ****   __ASM volatile ("MRS %0, primask" : "=r" (result) );
 203:src/sys/cmsis_gcc.h ****   return(result);
 204:src/sys/cmsis_gcc.h **** }
 205:src/sys/cmsis_gcc.h **** 
 206:src/sys/cmsis_gcc.h **** 
 207:src/sys/cmsis_gcc.h **** /**
 208:src/sys/cmsis_gcc.h ****   \brief   Set Priority Mask
 209:src/sys/cmsis_gcc.h ****   \details Assigns the given value to the Priority Mask Register.
 210:src/sys/cmsis_gcc.h ****   \param [in]    priMask  Priority Mask
 211:src/sys/cmsis_gcc.h ****  */
 212:src/sys/cmsis_gcc.h **** __attribute__( ( always_inline ) ) __STATIC_INLINE void __set_PRIMASK(uint32_t priMask)
 213:src/sys/cmsis_gcc.h **** {
 214:src/sys/cmsis_gcc.h ****   __ASM volatile ("MSR primask, %0" : : "r" (priMask) : "memory");
 215:src/sys/cmsis_gcc.h **** }
 216:src/sys/cmsis_gcc.h **** 
 217:src/sys/cmsis_gcc.h **** 
 218:src/sys/cmsis_gcc.h **** #if       (__CORTEX_M >= 0x03U)
 219:src/sys/cmsis_gcc.h **** 
 220:src/sys/cmsis_gcc.h **** /**
 221:src/sys/cmsis_gcc.h ****   \brief   Enable FIQ
 222:src/sys/cmsis_gcc.h ****   \details Enables FIQ interrupts by clearing the F-bit in the CPSR.
 223:src/sys/cmsis_gcc.h ****            Can only be executed in Privileged modes.
 224:src/sys/cmsis_gcc.h ****  */
 225:src/sys/cmsis_gcc.h **** __attribute__( ( always_inline ) ) __STATIC_INLINE void __enable_fault_irq(void)
 226:src/sys/cmsis_gcc.h **** {
 227:src/sys/cmsis_gcc.h ****   __ASM volatile ("cpsie f" : : : "memory");
 228:src/sys/cmsis_gcc.h **** }
 229:src/sys/cmsis_gcc.h **** 
 230:src/sys/cmsis_gcc.h **** 
 231:src/sys/cmsis_gcc.h **** /**
 232:src/sys/cmsis_gcc.h ****   \brief   Disable FIQ
 233:src/sys/cmsis_gcc.h ****   \details Disables FIQ interrupts by setting the F-bit in the CPSR.
 234:src/sys/cmsis_gcc.h ****            Can only be executed in Privileged modes.
 235:src/sys/cmsis_gcc.h ****  */
 236:src/sys/cmsis_gcc.h **** __attribute__( ( always_inline ) ) __STATIC_INLINE void __disable_fault_irq(void)
 237:src/sys/cmsis_gcc.h **** {
 238:src/sys/cmsis_gcc.h ****   __ASM volatile ("cpsid f" : : : "memory");
 239:src/sys/cmsis_gcc.h **** }
 240:src/sys/cmsis_gcc.h **** 
 241:src/sys/cmsis_gcc.h **** 
 242:src/sys/cmsis_gcc.h **** /**
 243:src/sys/cmsis_gcc.h ****   \brief   Get Base Priority
 244:src/sys/cmsis_gcc.h ****   \details Returns the current value of the Base Priority register.
 245:src/sys/cmsis_gcc.h ****   \return               Base Priority register value
 246:src/sys/cmsis_gcc.h ****  */
 247:src/sys/cmsis_gcc.h **** __attribute__( ( always_inline ) ) __STATIC_INLINE uint32_t __get_BASEPRI(void)
 248:src/sys/cmsis_gcc.h **** {
 249:src/sys/cmsis_gcc.h ****   uint32_t result;
 250:src/sys/cmsis_gcc.h **** 
 251:src/sys/cmsis_gcc.h ****   __ASM volatile ("MRS %0, basepri" : "=r" (result) );
 252:src/sys/cmsis_gcc.h ****   return(result);
 253:src/sys/cmsis_gcc.h **** }
 254:src/sys/cmsis_gcc.h **** 
 255:src/sys/cmsis_gcc.h **** 
 256:src/sys/cmsis_gcc.h **** /**
 257:src/sys/cmsis_gcc.h ****   \brief   Set Base Priority
 258:src/sys/cmsis_gcc.h ****   \details Assigns the given value to the Base Priority register.
 259:src/sys/cmsis_gcc.h ****   \param [in]    basePri  Base Priority value to set
 260:src/sys/cmsis_gcc.h ****  */
 261:src/sys/cmsis_gcc.h **** __attribute__( ( always_inline ) ) __STATIC_INLINE void __set_BASEPRI(uint32_t value)
 262:src/sys/cmsis_gcc.h **** {
 263:src/sys/cmsis_gcc.h ****   __ASM volatile ("MSR basepri, %0" : : "r" (value) : "memory");
 264:src/sys/cmsis_gcc.h **** }
 265:src/sys/cmsis_gcc.h **** 
 266:src/sys/cmsis_gcc.h **** 
 267:src/sys/cmsis_gcc.h **** /**
 268:src/sys/cmsis_gcc.h ****   \brief   Set Base Priority with condition
 269:src/sys/cmsis_gcc.h ****   \details Assigns the given value to the Base Priority register only if BASEPRI masking is disable
 270:src/sys/cmsis_gcc.h ****            or the new value increases the BASEPRI priority level.
 271:src/sys/cmsis_gcc.h ****   \param [in]    basePri  Base Priority value to set
 272:src/sys/cmsis_gcc.h ****  */
 273:src/sys/cmsis_gcc.h **** __attribute__( ( always_inline ) ) __STATIC_INLINE void __set_BASEPRI_MAX(uint32_t value)
 274:src/sys/cmsis_gcc.h **** {
 275:src/sys/cmsis_gcc.h ****   __ASM volatile ("MSR basepri_max, %0" : : "r" (value) : "memory");
 276:src/sys/cmsis_gcc.h **** }
 277:src/sys/cmsis_gcc.h **** 
 278:src/sys/cmsis_gcc.h **** 
 279:src/sys/cmsis_gcc.h **** /**
 280:src/sys/cmsis_gcc.h ****   \brief   Get Fault Mask
 281:src/sys/cmsis_gcc.h ****   \details Returns the current value of the Fault Mask register.
 282:src/sys/cmsis_gcc.h ****   \return               Fault Mask register value
 283:src/sys/cmsis_gcc.h ****  */
 284:src/sys/cmsis_gcc.h **** __attribute__( ( always_inline ) ) __STATIC_INLINE uint32_t __get_FAULTMASK(void)
 285:src/sys/cmsis_gcc.h **** {
 286:src/sys/cmsis_gcc.h ****   uint32_t result;
 287:src/sys/cmsis_gcc.h **** 
 288:src/sys/cmsis_gcc.h ****   __ASM volatile ("MRS %0, faultmask" : "=r" (result) );
 289:src/sys/cmsis_gcc.h ****   return(result);
 290:src/sys/cmsis_gcc.h **** }
 291:src/sys/cmsis_gcc.h **** 
 292:src/sys/cmsis_gcc.h **** 
 293:src/sys/cmsis_gcc.h **** /**
 294:src/sys/cmsis_gcc.h ****   \brief   Set Fault Mask
 295:src/sys/cmsis_gcc.h ****   \details Assigns the given value to the Fault Mask register.
 296:src/sys/cmsis_gcc.h ****   \param [in]    faultMask  Fault Mask value to set
 297:src/sys/cmsis_gcc.h ****  */
 298:src/sys/cmsis_gcc.h **** __attribute__( ( always_inline ) ) __STATIC_INLINE void __set_FAULTMASK(uint32_t faultMask)
 299:src/sys/cmsis_gcc.h **** {
 300:src/sys/cmsis_gcc.h ****   __ASM volatile ("MSR faultmask, %0" : : "r" (faultMask) : "memory");
 301:src/sys/cmsis_gcc.h **** }
 302:src/sys/cmsis_gcc.h **** 
 303:src/sys/cmsis_gcc.h **** #endif /* (__CORTEX_M >= 0x03U) */
 304:src/sys/cmsis_gcc.h **** 
 305:src/sys/cmsis_gcc.h **** 
 306:src/sys/cmsis_gcc.h **** #if       (__CORTEX_M == 0x04U) || (__CORTEX_M == 0x07U)
 307:src/sys/cmsis_gcc.h **** 
 308:src/sys/cmsis_gcc.h **** /**
 309:src/sys/cmsis_gcc.h ****   \brief   Get FPSCR
 310:src/sys/cmsis_gcc.h ****   \details Returns the current value of the Floating Point Status/Control register.
 311:src/sys/cmsis_gcc.h ****   \return               Floating Point Status/Control register value
 312:src/sys/cmsis_gcc.h ****  */
 313:src/sys/cmsis_gcc.h **** __attribute__( ( always_inline ) ) __STATIC_INLINE uint32_t __get_FPSCR(void)
 314:src/sys/cmsis_gcc.h **** {
 315:src/sys/cmsis_gcc.h **** #if (__FPU_PRESENT == 1U) && (__FPU_USED == 1U)
 316:src/sys/cmsis_gcc.h ****   uint32_t result;
 317:src/sys/cmsis_gcc.h **** 
 318:src/sys/cmsis_gcc.h ****   /* Empty asm statement works as a scheduling barrier */
 319:src/sys/cmsis_gcc.h ****   __ASM volatile ("");
 320:src/sys/cmsis_gcc.h ****   __ASM volatile ("VMRS %0, fpscr" : "=r" (result) );
 321:src/sys/cmsis_gcc.h ****   __ASM volatile ("");
 322:src/sys/cmsis_gcc.h ****   return(result);
 323:src/sys/cmsis_gcc.h **** #else
 324:src/sys/cmsis_gcc.h ****    return(0);
 325:src/sys/cmsis_gcc.h **** #endif
 326:src/sys/cmsis_gcc.h **** }
 327:src/sys/cmsis_gcc.h **** 
 328:src/sys/cmsis_gcc.h **** 
 329:src/sys/cmsis_gcc.h **** /**
 330:src/sys/cmsis_gcc.h ****   \brief   Set FPSCR
 331:src/sys/cmsis_gcc.h ****   \details Assigns the given value to the Floating Point Status/Control register.
 332:src/sys/cmsis_gcc.h ****   \param [in]    fpscr  Floating Point Status/Control value to set
 333:src/sys/cmsis_gcc.h ****  */
 334:src/sys/cmsis_gcc.h **** __attribute__( ( always_inline ) ) __STATIC_INLINE void __set_FPSCR(uint32_t fpscr)
 335:src/sys/cmsis_gcc.h **** {
 336:src/sys/cmsis_gcc.h **** #if (__FPU_PRESENT == 1U) && (__FPU_USED == 1U)
 337:src/sys/cmsis_gcc.h ****   /* Empty asm statement works as a scheduling barrier */
 338:src/sys/cmsis_gcc.h ****   __ASM volatile ("");
 339:src/sys/cmsis_gcc.h ****   __ASM volatile ("VMSR fpscr, %0" : : "r" (fpscr) : "vfpcc");
 340:src/sys/cmsis_gcc.h ****   __ASM volatile ("");
 341:src/sys/cmsis_gcc.h **** #endif
 342:src/sys/cmsis_gcc.h **** }
 343:src/sys/cmsis_gcc.h **** 
 344:src/sys/cmsis_gcc.h **** #endif /* (__CORTEX_M == 0x04U) || (__CORTEX_M == 0x07U) */
 345:src/sys/cmsis_gcc.h **** 
 346:src/sys/cmsis_gcc.h **** 
 347:src/sys/cmsis_gcc.h **** 
 348:src/sys/cmsis_gcc.h **** /*@} end of CMSIS_Core_RegAccFunctions */
 349:src/sys/cmsis_gcc.h **** 
 350:src/sys/cmsis_gcc.h **** 
 351:src/sys/cmsis_gcc.h **** /* ##########################  Core Instruction Access  ######################### */
 352:src/sys/cmsis_gcc.h **** /** \defgroup CMSIS_Core_InstructionInterface CMSIS Core Instruction Interface
 353:src/sys/cmsis_gcc.h ****   Access to dedicated instructions
 354:src/sys/cmsis_gcc.h ****   @{
 355:src/sys/cmsis_gcc.h **** */
 356:src/sys/cmsis_gcc.h **** 
 357:src/sys/cmsis_gcc.h **** /* Define macros for porting to both thumb1 and thumb2.
 358:src/sys/cmsis_gcc.h ****  * For thumb1, use low register (r0-r7), specified by constraint "l"
 359:src/sys/cmsis_gcc.h ****  * Otherwise, use general registers, specified by constraint "r" */
 360:src/sys/cmsis_gcc.h **** #if defined (__thumb__) && !defined (__thumb2__)
 361:src/sys/cmsis_gcc.h **** #define __CMSIS_GCC_OUT_REG(r) "=l" (r)
 362:src/sys/cmsis_gcc.h **** #define __CMSIS_GCC_USE_REG(r) "l" (r)
 363:src/sys/cmsis_gcc.h **** #else
 364:src/sys/cmsis_gcc.h **** #define __CMSIS_GCC_OUT_REG(r) "=r" (r)
 365:src/sys/cmsis_gcc.h **** #define __CMSIS_GCC_USE_REG(r) "r" (r)
 366:src/sys/cmsis_gcc.h **** #endif
 367:src/sys/cmsis_gcc.h **** 
 368:src/sys/cmsis_gcc.h **** /**
 369:src/sys/cmsis_gcc.h ****   \brief   No Operation
 370:src/sys/cmsis_gcc.h ****   \details No Operation does nothing. This instruction can be used for code alignment purposes.
 371:src/sys/cmsis_gcc.h ****  */
 372:src/sys/cmsis_gcc.h **** __attribute__((always_inline)) __STATIC_INLINE void __NOP(void)
 373:src/sys/cmsis_gcc.h **** {
 374:src/sys/cmsis_gcc.h ****   __ASM volatile ("nop");
 375:src/sys/cmsis_gcc.h **** }
 376:src/sys/cmsis_gcc.h **** 
 377:src/sys/cmsis_gcc.h **** 
 378:src/sys/cmsis_gcc.h **** /**
 379:src/sys/cmsis_gcc.h ****   \brief   Wait For Interrupt
 380:src/sys/cmsis_gcc.h ****   \details Wait For Interrupt is a hint instruction that suspends execution until one of a number o
 381:src/sys/cmsis_gcc.h ****  */
 382:src/sys/cmsis_gcc.h **** __attribute__((always_inline)) __STATIC_INLINE void __WFI(void)
 383:src/sys/cmsis_gcc.h **** {
 384:src/sys/cmsis_gcc.h ****   __ASM volatile ("wfi");
 385:src/sys/cmsis_gcc.h **** }
 386:src/sys/cmsis_gcc.h **** 
 387:src/sys/cmsis_gcc.h **** 
 388:src/sys/cmsis_gcc.h **** /**
 389:src/sys/cmsis_gcc.h ****   \brief   Wait For Event
 390:src/sys/cmsis_gcc.h ****   \details Wait For Event is a hint instruction that permits the processor to enter
 391:src/sys/cmsis_gcc.h ****     a low-power state until one of a number of events occurs.
 392:src/sys/cmsis_gcc.h ****  */
 393:src/sys/cmsis_gcc.h **** __attribute__((always_inline)) __STATIC_INLINE void __WFE(void)
 394:src/sys/cmsis_gcc.h **** {
 395:src/sys/cmsis_gcc.h ****   __ASM volatile ("wfe");
 396:src/sys/cmsis_gcc.h **** }
 397:src/sys/cmsis_gcc.h **** 
 398:src/sys/cmsis_gcc.h **** 
 399:src/sys/cmsis_gcc.h **** /**
 400:src/sys/cmsis_gcc.h ****   \brief   Send Event
 401:src/sys/cmsis_gcc.h ****   \details Send Event is a hint instruction. It causes an event to be signaled to the CPU.
 402:src/sys/cmsis_gcc.h ****  */
 403:src/sys/cmsis_gcc.h **** __attribute__((always_inline)) __STATIC_INLINE void __SEV(void)
 404:src/sys/cmsis_gcc.h **** {
 405:src/sys/cmsis_gcc.h ****   __ASM volatile ("sev");
 406:src/sys/cmsis_gcc.h **** }
 407:src/sys/cmsis_gcc.h **** 
 408:src/sys/cmsis_gcc.h **** 
 409:src/sys/cmsis_gcc.h **** /**
 410:src/sys/cmsis_gcc.h ****   \brief   Instruction Synchronization Barrier
 411:src/sys/cmsis_gcc.h ****   \details Instruction Synchronization Barrier flushes the pipeline in the processor,
 412:src/sys/cmsis_gcc.h ****            so that all instructions following the ISB are fetched from cache or memory,
 413:src/sys/cmsis_gcc.h ****            after the instruction has been completed.
 414:src/sys/cmsis_gcc.h ****  */
 415:src/sys/cmsis_gcc.h **** __attribute__((always_inline)) __STATIC_INLINE void __ISB(void)
 416:src/sys/cmsis_gcc.h **** {
 417:src/sys/cmsis_gcc.h ****   __ASM volatile ("isb 0xF":::"memory");
 418:src/sys/cmsis_gcc.h **** }
 419:src/sys/cmsis_gcc.h **** 
 420:src/sys/cmsis_gcc.h **** 
 421:src/sys/cmsis_gcc.h **** /**
 422:src/sys/cmsis_gcc.h ****   \brief   Data Synchronization Barrier
 423:src/sys/cmsis_gcc.h ****   \details Acts as a special kind of Data Memory Barrier.
 424:src/sys/cmsis_gcc.h ****            It completes when all explicit memory accesses before this instruction complete.
 425:src/sys/cmsis_gcc.h ****  */
 426:src/sys/cmsis_gcc.h **** __attribute__((always_inline)) __STATIC_INLINE void __DSB(void)
  48              		.loc 3 426 53 view .LVU5
  49              	.LBB17:
 427:src/sys/cmsis_gcc.h **** {
 428:src/sys/cmsis_gcc.h ****   __ASM volatile ("dsb 0xF":::"memory");
  50              		.loc 3 428 3 view .LVU6
  51              		.syntax unified
  52              	@ 428 "src/sys/cmsis_gcc.h" 1
  53 000a BFF34F8F 		dsb 0xF
  54              	@ 0 "" 2
  55              		.thumb
  56              		.syntax unified
  57              	.LBE17:
  58              	.LBE16:
  59              	.LBE15:
  60              	.LBE14:
  11:src/sys/serial_io.c **** 
  12:src/sys/serial_io.c ****   /* setup PA2,PA3 alternate function : USART2_Tx/Rx */
  13:src/sys/serial_io.c ****   /* AFRL2=7; AFRL3=7; */
  14:src/sys/serial_io.c **** 
  15:src/sys/serial_io.c ****   GPIOA.AFRL = 
  61              		.loc 1 15 3 view .LVU7
  16:src/sys/serial_io.c ****     (GPIOA.AFRL & ~((15<<8) | (15<<12))) | ((7<<8)|(7<<12));
  62              		.loc 1 16 11 is_stmt 0 view .LVU8
  63 000e 084A     		ldr	r2, .L2+4
  64 0010 136A     		ldr	r3, [r2, #32]
  65              		.loc 1 16 17 view .LVU9
  66 0012 23F47F43 		bic	r3, r3, #65280
  67              		.loc 1 16 42 view .LVU10
  68 0016 43F4EE43 		orr	r3, r3, #30464
  15:src/sys/serial_io.c ****     (GPIOA.AFRL & ~((15<<8) | (15<<12))) | ((7<<8)|(7<<12));
  69              		.loc 1 15 14 view .LVU11
  70 001a 1362     		str	r3, [r2, #32]
  17:src/sys/serial_io.c **** 
  18:src/sys/serial_io.c ****   /* switch PA2,PA3 to alternate function mode */
  19:src/sys/serial_io.c ****   /* MODER2=2; MODER3=2; */
  20:src/sys/serial_io.c **** 
  21:src/sys/serial_io.c ****   GPIOA.MODER = 
  71              		.loc 1 21 3 is_stmt 1 view .LVU12
  22:src/sys/serial_io.c ****     (GPIOA.MODER & ~((3<<4)|(3<<6))) | ((2<<4)|(2<<6));
  72              		.loc 1 22 11 is_stmt 0 view .LVU13
  73 001c 1368     		ldr	r3, [r2]
  74              		.loc 1 22 18 view .LVU14
  75 001e 23F0F003 		bic	r3, r3, #240
  76              		.loc 1 22 38 view .LVU15
  77 0022 43F0A003 		orr	r3, r3, #160
  21:src/sys/serial_io.c ****     (GPIOA.MODER & ~((3<<4)|(3<<6))) | ((2<<4)|(2<<6));
  78              		.loc 1 21 15 view .LVU16
  79 0026 1360     		str	r3, [r2]
  23:src/sys/serial_io.c **** }
  80              		.loc 1 23 1 view .LVU17
  81 0028 7047     		bx	lr
  82              	.L3:
  83 002a 00BF     		.align	2
  84              	.L2:
  85 002c 00000000 		.word	RCC
  86 0030 00000000 		.word	GPIOA
  87              		.cfi_endproc
  88              	.LFE400:
  89              		.size	enable_USART2_GPIO, .-enable_USART2_GPIO
  90              		.align	1
  91              		.global	setup_USART2
  92              		.syntax unified
  93              		.thumb
  94              		.thumb_func
  95              		.fpu fpv4-sp-d16
  96              		.type	setup_USART2, %function
  97              	setup_USART2:
  98              	.LVL0:
  99              	.LFB401:
  24:src/sys/serial_io.c **** 
  25:src/sys/serial_io.c **** void setup_USART2(uint32_t baudrate) {
 100              		.loc 1 25 38 is_stmt 1 view -0
 101              		.cfi_startproc
 102              		@ args = 0, pretend = 0, frame = 0
 103              		@ frame_needed = 0, uses_anonymous_args = 0
  26:src/sys/serial_io.c ****   /*  Enable USART2 */
  27:src/sys/serial_io.c **** 
  28:src/sys/serial_io.c ****   enable_USART2();
 104              		.loc 1 28 3 view .LVU19
 105              	.LBB18:
 106              	.LBI18:
 669:src/sys/devices.h **** 
 670:src/sys/devices.h **** __declare_device_control(SAI2,APB2,23)
 671:src/sys/devices.h **** __declare_device_control(SAI1,APB2,22)
 672:src/sys/devices.h **** 
 673:src/sys/devices.h **** __declare_device_control(TIM11,APB2,18)
 674:src/sys/devices.h **** __declare_device_control(TIM10,APB2,17)
 675:src/sys/devices.h **** __declare_device_control(TIM9,APB2,16)
 676:src/sys/devices.h **** __declare_device_control(SYSCFG,APB2,14)
 677:src/sys/devices.h **** __declare_device_control(SPI4,APB2,13)
 678:src/sys/devices.h **** __declare_device_control(SPI1,APB2,12)
 679:src/sys/devices.h **** __declare_device_control(SDMMC,APB2,11)
 680:src/sys/devices.h **** __declare_device_control(ADC,APB2,8)
 681:src/sys/devices.h **** __declare_device_control(ADC1,APB2,8)
 682:src/sys/devices.h **** __declare_device_control(ADC2,APB2,8)
 683:src/sys/devices.h **** __declare_device_control(ADC3,APB2,8)
 684:src/sys/devices.h **** __declare_device_control(USART6,APB2,5)
 685:src/sys/devices.h **** __declare_device_control(USART1,APB2,4)
 686:src/sys/devices.h **** __declare_device_control(TIM8,APB2,1)
 687:src/sys/devices.h **** __declare_device_control(TIM1,APB2,0)
 688:src/sys/devices.h **** 
 689:src/sys/devices.h **** __declare_device_control(DAC,APB1,29)
 690:src/sys/devices.h **** __declare_device_control(PWR,APB1,28)
 691:src/sys/devices.h **** __declare_device_control(HDMI_CEC,APB1,27)
 692:src/sys/devices.h **** __declare_device_control(CAN2,APB1,26)
 693:src/sys/devices.h **** __declare_device_control(CAN1,APB1,25)
 694:src/sys/devices.h **** __declare_device_control(FMPI2C1,APB1,24)
 695:src/sys/devices.h **** __declare_device_control(I2C3,APB1,23)
 696:src/sys/devices.h **** __declare_device_control(I2C2,APB1,22)
 697:src/sys/devices.h **** __declare_device_control(I2C1,APB1,21)
 698:src/sys/devices.h **** __declare_device_control(UART5,APB1,20)
 699:src/sys/devices.h **** __declare_device_control(UART4,APB1,19)
 700:src/sys/devices.h **** __declare_device_control(USART3,APB1,18)
 701:src/sys/devices.h **** __declare_device_control(USART2,APB1,17)
 107              		.loc 2 701 1 view .LVU20
 108              	.LBB19:
 109              		.loc 2 701 1 view .LVU21
 110 0034 0A4A     		ldr	r2, .L5
 111 0036 136C     		ldr	r3, [r2, #64]
 112 0038 43F40033 		orr	r3, r3, #131072
 113              	.LBE19:
 114              	.LBE18:
  25:src/sys/serial_io.c ****   /*  Enable USART2 */
 115              		.loc 1 25 38 is_stmt 0 view .LVU22
 116 003c 10B5     		push	{r4, lr}
 117              		.cfi_def_cfa_offset 8
 118              		.cfi_offset 4, -8
 119              		.cfi_offset 14, -4
  25:src/sys/serial_io.c ****   /*  Enable USART2 */
 120              		.loc 1 25 38 view .LVU23
 121 003e 0446     		mov	r4, r0
 122              	.LBB23:
 123              	.LBB22:
 124              		.loc 2 701 1 view .LVU24
 125 0040 1364     		str	r3, [r2, #64]
 126              		.loc 2 701 1 is_stmt 1 view .LVU25
 127              	.LBB20:
 128              	.LBI20:
 426:src/sys/cmsis_gcc.h **** {
 129              		.loc 3 426 53 view .LVU26
 130              	.LBB21:
 131              		.loc 3 428 3 view .LVU27
 132              		.syntax unified
 133              	@ 428 "src/sys/cmsis_gcc.h" 1
 134 0042 BFF34F8F 		dsb 0xF
 135              	@ 0 "" 2
 136              		.thumb
 137              		.syntax unified
 138              	.LBE21:
 139              	.LBE20:
 140              	.LBE22:
 141              	.LBE23:
  29:src/sys/serial_io.c **** 
  30:src/sys/serial_io.c ****   /* Setup baudrate (OVER8=0) */
  31:src/sys/serial_io.c ****   USART2.BRR = get_APB1CLK()/baudrate;
 142              		.loc 1 31 3 view .LVU28
 143              		.loc 1 31 16 is_stmt 0 view .LVU29
 144 0046 FFF7FEFF 		bl	get_APB1CLK
 145              	.LVL1:
 146              		.loc 1 31 14 view .LVU30
 147 004a 064B     		ldr	r3, .L5+4
 148              		.loc 1 31 29 view .LVU31
 149 004c B0FBF4F0 		udiv	r0, r0, r4
  32:src/sys/serial_io.c **** 
  33:src/sys/serial_io.c ****   /* SC OFF, IR OFF,HD OFF */
  34:src/sys/serial_io.c ****   /* SCEN=0; IREN=0; HDSEL=0; */  
  35:src/sys/serial_io.c **** 
  36:src/sys/serial_io.c ****   USART2.CR3 = (0<<1)|(0<<3)|(0<<5);
 150              		.loc 1 36 14 view .LVU32
 151 0050 0022     		movs	r2, #0
  31:src/sys/serial_io.c **** 
 152              		.loc 1 31 14 view .LVU33
 153 0052 9860     		str	r0, [r3, #8]
 154              		.loc 1 36 3 is_stmt 1 view .LVU34
 155              		.loc 1 36 14 is_stmt 0 view .LVU35
 156 0054 5A61     		str	r2, [r3, #20]
  37:src/sys/serial_io.c **** 
  38:src/sys/serial_io.c ****   /* LIN OFF,1 stop bit,CLK OFF */
  39:src/sys/serial_io.c ****   /* LINEN=0; STOP=0; CLKEN=0; */  
  40:src/sys/serial_io.c **** 
  41:src/sys/serial_io.c ****   USART2.CR2 = (0<<11)|(0<<12)|(0<<14);
 157              		.loc 1 41 3 is_stmt 1 view .LVU36
 158              		.loc 1 41 14 is_stmt 0 view .LVU37
 159 0056 1A61     		str	r2, [r3, #16]
  42:src/sys/serial_io.c **** 
  43:src/sys/serial_io.c ****   /* USART/Tx/Rx enable, no parity, 8 bits */ 
  44:src/sys/serial_io.c ****   /* RE=1; TE=1; PCE=0; M=0; OVER8=0; */
  45:src/sys/serial_io.c **** 
  46:src/sys/serial_io.c ****   USART2.CR1 = (1<<2) | (1<<3) | (0<<10) | (0<<12) | (1<<13) | (0<<15);
 160              		.loc 1 46 3 is_stmt 1 view .LVU38
 161              		.loc 1 46 14 is_stmt 0 view .LVU39
 162 0058 42F20C02 		movw	r2, #8204
 163 005c DA60     		str	r2, [r3, #12]
  47:src/sys/serial_io.c **** }
 164              		.loc 1 47 1 view .LVU40
 165 005e 10BD     		pop	{r4, pc}
 166              	.LVL2:
 167              	.L6:
 168              		.loc 1 47 1 view .LVU41
 169              		.align	2
 170              	.L5:
 171 0060 00000000 		.word	RCC
 172 0064 00000000 		.word	USART2
 173              		.cfi_endproc
 174              	.LFE401:
 175              		.size	setup_USART2, .-setup_USART2
 176              		.align	1
 177              		.global	serial_io_init
 178              		.syntax unified
 179              		.thumb
 180              		.thumb_func
 181              		.fpu fpv4-sp-d16
 182              		.type	serial_io_init, %function
 183              	serial_io_init:
 184              	.LFB402:
  48:src/sys/serial_io.c **** 
  49:src/sys/serial_io.c **** void serial_io_init() {
 185              		.loc 1 49 23 is_stmt 1 view -0
 186              		.cfi_startproc
 187              		@ args = 0, pretend = 0, frame = 0
 188              		@ frame_needed = 0, uses_anonymous_args = 0
  50:src/sys/serial_io.c ****   setup_USART2(9600);
 189              		.loc 1 50 3 view .LVU43
  49:src/sys/serial_io.c ****   setup_USART2(9600);
 190              		.loc 1 49 23 is_stmt 0 view .LVU44
 191 0068 10B5     		push	{r4, lr}
 192              		.cfi_def_cfa_offset 8
 193              		.cfi_offset 4, -8
 194              		.cfi_offset 14, -4
  51:src/sys/serial_io.c ****   enable_USART2_GPIO();
  52:src/sys/serial_io.c **** 
  53:src/sys/serial_io.c ****   /* disable input/output buffering */
  54:src/sys/serial_io.c ****   setvbuf(stdin ,NULL,_IONBF,0);
 195              		.loc 1 54 11 view .LVU45
 196 006a 0F4C     		ldr	r4, .L8
  50:src/sys/serial_io.c ****   enable_USART2_GPIO();
 197              		.loc 1 50 3 view .LVU46
 198 006c 4FF41650 		mov	r0, #9600
 199 0070 FFF7FEFF 		bl	setup_USART2
 200              	.LVL3:
  51:src/sys/serial_io.c ****   enable_USART2_GPIO();
 201              		.loc 1 51 3 is_stmt 1 view .LVU47
 202 0074 FFF7FEFF 		bl	enable_USART2_GPIO
 203              	.LVL4:
 204              		.loc 1 54 3 view .LVU48
 205              		.loc 1 54 11 is_stmt 0 view .LVU49
 206 0078 2068     		ldr	r0, [r4]
 207              		.loc 1 54 3 view .LVU50
 208 007a 0023     		movs	r3, #0
 209 007c 1946     		mov	r1, r3
 210 007e 0222     		movs	r2, #2
 211 0080 4068     		ldr	r0, [r0, #4]
 212 0082 FFF7FEFF 		bl	setvbuf
 213              	.LVL5:
  55:src/sys/serial_io.c ****   setvbuf(stdout,NULL,_IONBF,0);
 214              		.loc 1 55 3 is_stmt 1 view .LVU51
 215              		.loc 1 55 11 is_stmt 0 view .LVU52
 216 0086 2068     		ldr	r0, [r4]
 217              		.loc 1 55 3 view .LVU53
 218 0088 0023     		movs	r3, #0
 219 008a 1946     		mov	r1, r3
 220 008c 0222     		movs	r2, #2
 221 008e 8068     		ldr	r0, [r0, #8]
 222 0090 FFF7FEFF 		bl	setvbuf
 223              	.LVL6:
  56:src/sys/serial_io.c ****   setvbuf(stderr,NULL,_IONBF,0);
 224              		.loc 1 56 3 is_stmt 1 view .LVU54
 225              		.loc 1 56 11 is_stmt 0 view .LVU55
 226 0094 2068     		ldr	r0, [r4]
 227              		.loc 1 56 3 view .LVU56
 228 0096 0023     		movs	r3, #0
  57:src/sys/serial_io.c **** }
 229              		.loc 1 57 1 view .LVU57
 230 0098 BDE81040 		pop	{r4, lr}
 231              		.cfi_restore 14
 232              		.cfi_restore 4
 233              		.cfi_def_cfa_offset 0
  56:src/sys/serial_io.c ****   setvbuf(stderr,NULL,_IONBF,0);
 234              		.loc 1 56 3 view .LVU58
 235 009c C068     		ldr	r0, [r0, #12]
 236 009e 0222     		movs	r2, #2
 237 00a0 1946     		mov	r1, r3
 238 00a2 FFF7FEBF 		b	setvbuf
 239              	.LVL7:
 240              	.L9:
 241 00a6 00BF     		.align	2
 242              	.L8:
 243 00a8 00000000 		.word	_impure_ptr
 244              		.cfi_endproc
 245              	.LFE402:
 246              		.size	serial_io_init, .-serial_io_init
 247              	.Letext0:
 248              		.file 4 "/usr/lib/gcc/arm-none-eabi/10.3.1/include/stdint.h"
 249              		.file 5 "/usr/lib/gcc/arm-none-eabi/10.3.1/include/stddef.h"
 250              		.file 6 "/usr/include/newlib/sys/_types.h"
 251              		.file 7 "/usr/include/newlib/sys/reent.h"
 252              		.file 8 "/usr/include/newlib/sys/lock.h"
 253              		.file 9 "/usr/include/newlib/stdio.h"
 254              		.file 10 "src/sys/clock.h"