   1              		.arch armv7e-m
   2              		.eabi_attribute 27, 1
   3              		.eabi_attribute 28, 1
   4              		.eabi_attribute 20, 1
   5              		.eabi_attribute 21, 1
   6              		.eabi_attribute 23, 3
   7              		.eabi_attribute 24, 1
   8              		.eabi_attribute 25, 1
   9              		.eabi_attribute 26, 1
  10              		.eabi_attribute 30, 4
  11              		.eabi_attribute 34, 1
  12              		.eabi_attribute 18, 4
  13              		.file	"syscalls.c"
  14              		.text
  15              	.Ltext0:
  16              		.cfi_sections	.debug_frame
  17              		.align	1
  18              		.global	_exit
  19              		.arch armv7e-m
  20              		.syntax unified
  21              		.thumb
  22              		.thumb_func
  23              		.fpu fpv4-sp-d16
  24              		.type	_exit, %function
  25              	_exit:
  26              	.LFB397:
  27              		.file 1 "src/sys/syscalls.c"
   1:src/sys/syscalls.c **** #include <errno.h>
   2:src/sys/syscalls.c **** #include <stdlib.h>
   3:src/sys/syscalls.c **** #include <sys/stat.h>
   4:src/sys/syscalls.c **** #include <sys/times.h>
   5:src/sys/syscalls.c **** #include <sys/unistd.h>
   6:src/sys/syscalls.c **** #include "devices.h"
   7:src/sys/syscalls.c **** 
   8:src/sys/syscalls.c **** #undef errno
   9:src/sys/syscalls.c **** extern int errno;
  10:src/sys/syscalls.c **** 
  11:src/sys/syscalls.c **** void _exit(int status) {
  28              		.loc 1 11 24 view -0
  29              		.cfi_startproc
  30              		@ Volatile: function does not return.
  31              		@ args = 0, pretend = 0, frame = 0
  32              		@ frame_needed = 0, uses_anonymous_args = 0
  33              		@ link register save eliminated.
  34              	.LVL0:
  35              	.L2:
  12:src/sys/syscalls.c ****   while(1);
  36              		.loc 1 12 3 discriminator 1 view .LVU1
  37              		.loc 1 12 11 discriminator 1 view .LVU2
  38              		.loc 1 12 8 discriminator 1 view .LVU3
  39 0000 FEE7     		b	.L2
  40              		.cfi_endproc
  41              	.LFE397:
  42              		.size	_exit, .-_exit
  43              		.align	1
  44              		.global	_open
  45              		.syntax unified
  46              		.thumb
  47              		.thumb_func
  48              		.fpu fpv4-sp-d16
  49              		.type	_open, %function
  50              	_open:
  51              	.LVL1:
  52              	.LFB398:
  13:src/sys/syscalls.c **** }
  14:src/sys/syscalls.c **** 
  15:src/sys/syscalls.c **** int _open(const char *pathname, int flags, mode_t mode) {
  53              		.loc 1 15 57 view -0
  54              		.cfi_startproc
  55              		@ args = 0, pretend = 0, frame = 0
  56              		@ frame_needed = 0, uses_anonymous_args = 0
  57              		@ link register save eliminated.
  16:src/sys/syscalls.c ****     errno=ENOSYS;
  58              		.loc 1 16 5 view .LVU5
  59              		.loc 1 16 10 is_stmt 0 view .LVU6
  60 0002 034B     		ldr	r3, .L4
  61 0004 5822     		movs	r2, #88
  62              	.LVL2:
  63              		.loc 1 16 10 view .LVU7
  64 0006 1A60     		str	r2, [r3]
  17:src/sys/syscalls.c ****     return -1;
  65              		.loc 1 17 5 is_stmt 1 view .LVU8
  18:src/sys/syscalls.c **** }
  66              		.loc 1 18 1 is_stmt 0 view .LVU9
  67 0008 4FF0FF30 		mov	r0, #-1
  68              	.LVL3:
  69              		.loc 1 18 1 view .LVU10
  70 000c 7047     		bx	lr
  71              	.L5:
  72 000e 00BF     		.align	2
  73              	.L4:
  74 0010 00000000 		.word	errno
  75              		.cfi_endproc
  76              	.LFE398:
  77              		.size	_open, .-_open
  78              		.align	1
  79              		.global	_close
  80              		.syntax unified
  81              		.thumb
  82              		.thumb_func
  83              		.fpu fpv4-sp-d16
  84              		.type	_close, %function
  85              	_close:
  86              	.LVL4:
  87              	.LFB399:
  19:src/sys/syscalls.c **** 
  20:src/sys/syscalls.c **** int _close(int file) {
  88              		.loc 1 20 22 is_stmt 1 view -0
  89              		.cfi_startproc
  90              		@ args = 0, pretend = 0, frame = 0
  91              		@ frame_needed = 0, uses_anonymous_args = 0
  92              		@ link register save eliminated.
  21:src/sys/syscalls.c ****     errno=ENOSYS;
  93              		.loc 1 21 5 view .LVU12
  94              		.loc 1 21 10 is_stmt 0 view .LVU13
  95 0014 024B     		ldr	r3, .L7
  96 0016 5822     		movs	r2, #88
  97 0018 1A60     		str	r2, [r3]
  22:src/sys/syscalls.c ****     return -1;
  98              		.loc 1 22 5 is_stmt 1 view .LVU14
  23:src/sys/syscalls.c **** }
  99              		.loc 1 23 1 is_stmt 0 view .LVU15
 100 001a 4FF0FF30 		mov	r0, #-1
 101              	.LVL5:
 102              		.loc 1 23 1 view .LVU16
 103 001e 7047     		bx	lr
 104              	.L8:
 105              		.align	2
 106              	.L7:
 107 0020 00000000 		.word	errno
 108              		.cfi_endproc
 109              	.LFE399:
 110              		.size	_close, .-_close
 111              		.align	1
 112              		.global	_execve
 113              		.syntax unified
 114              		.thumb
 115              		.thumb_func
 116              		.fpu fpv4-sp-d16
 117              		.type	_execve, %function
 118              	_execve:
 119              	.LVL6:
 120              	.LFB400:
  24:src/sys/syscalls.c **** 
  25:src/sys/syscalls.c **** int _execve(char *name, char **argv, char **env) {
 121              		.loc 1 25 50 is_stmt 1 view -0
 122              		.cfi_startproc
 123              		@ args = 0, pretend = 0, frame = 0
 124              		@ frame_needed = 0, uses_anonymous_args = 0
 125              		@ link register save eliminated.
  26:src/sys/syscalls.c ****     errno = ENOSYS;
 126              		.loc 1 26 5 view .LVU18
 127              		.loc 1 26 11 is_stmt 0 view .LVU19
 128 0024 024B     		ldr	r3, .L10
 129 0026 5822     		movs	r2, #88
 130              	.LVL7:
 131              		.loc 1 26 11 view .LVU20
 132 0028 1A60     		str	r2, [r3]
  27:src/sys/syscalls.c ****     return -1;
 133              		.loc 1 27 5 is_stmt 1 view .LVU21
  28:src/sys/syscalls.c **** }
 134              		.loc 1 28 1 is_stmt 0 view .LVU22
 135 002a 4FF0FF30 		mov	r0, #-1
 136              	.LVL8:
 137              		.loc 1 28 1 view .LVU23
 138 002e 7047     		bx	lr
 139              	.L11:
 140              		.align	2
 141              	.L10:
 142 0030 00000000 		.word	errno
 143              		.cfi_endproc
 144              	.LFE400:
 145              		.size	_execve, .-_execve
 146              		.align	1
 147              		.global	_fork
 148              		.syntax unified
 149              		.thumb
 150              		.thumb_func
 151              		.fpu fpv4-sp-d16
 152              		.type	_fork, %function
 153              	_fork:
 154              	.LFB401:
  29:src/sys/syscalls.c **** 
  30:src/sys/syscalls.c **** int _fork() {
 155              		.loc 1 30 13 is_stmt 1 view -0
 156              		.cfi_startproc
 157              		@ args = 0, pretend = 0, frame = 0
 158              		@ frame_needed = 0, uses_anonymous_args = 0
 159              		@ link register save eliminated.
  31:src/sys/syscalls.c ****     errno = ENOSYS;
 160              		.loc 1 31 5 view .LVU25
 161              		.loc 1 31 11 is_stmt 0 view .LVU26
 162 0034 024B     		ldr	r3, .L13
 163 0036 5822     		movs	r2, #88
 164 0038 1A60     		str	r2, [r3]
  32:src/sys/syscalls.c ****     return -1;
 165              		.loc 1 32 5 is_stmt 1 view .LVU27
  33:src/sys/syscalls.c **** }
 166              		.loc 1 33 1 is_stmt 0 view .LVU28
 167 003a 4FF0FF30 		mov	r0, #-1
 168 003e 7047     		bx	lr
 169              	.L14:
 170              		.align	2
 171              	.L13:
 172 0040 00000000 		.word	errno
 173              		.cfi_endproc
 174              	.LFE401:
 175              		.size	_fork, .-_fork
 176              		.align	1
 177              		.global	_kill
 178              		.syntax unified
 179              		.thumb
 180              		.thumb_func
 181              		.fpu fpv4-sp-d16
 182              		.type	_kill, %function
 183              	_kill:
 184              	.LVL9:
 185              	.LFB402:
  34:src/sys/syscalls.c **** 
  35:src/sys/syscalls.c **** int _kill(int pid, int sig) {
 186              		.loc 1 35 29 is_stmt 1 view -0
 187              		.cfi_startproc
 188              		@ args = 0, pretend = 0, frame = 0
 189              		@ frame_needed = 0, uses_anonymous_args = 0
 190              		@ link register save eliminated.
  36:src/sys/syscalls.c ****   errno = ENOSYS;
 191              		.loc 1 36 3 view .LVU30
 192              		.loc 1 36 9 is_stmt 0 view .LVU31
 193 0044 024B     		ldr	r3, .L16
 194 0046 5822     		movs	r2, #88
 195 0048 1A60     		str	r2, [r3]
  37:src/sys/syscalls.c ****   return (-1);
 196              		.loc 1 37 3 is_stmt 1 view .LVU32
  38:src/sys/syscalls.c **** }
 197              		.loc 1 38 1 is_stmt 0 view .LVU33
 198 004a 4FF0FF30 		mov	r0, #-1
 199              	.LVL10:
 200              		.loc 1 38 1 view .LVU34
 201 004e 7047     		bx	lr
 202              	.L17:
 203              		.align	2
 204              	.L16:
 205 0050 00000000 		.word	errno
 206              		.cfi_endproc
 207              	.LFE402:
 208              		.size	_kill, .-_kill
 209              		.align	1
 210              		.global	_link
 211              		.syntax unified
 212              		.thumb
 213              		.thumb_func
 214              		.fpu fpv4-sp-d16
 215              		.type	_link, %function
 216              	_link:
 217              	.LVL11:
 218              	.LFB403:
  39:src/sys/syscalls.c **** 
  40:src/sys/syscalls.c **** int _link(char *old, char *new) {
 219              		.loc 1 40 33 is_stmt 1 view -0
 220              		.cfi_startproc
 221              		@ args = 0, pretend = 0, frame = 0
 222              		@ frame_needed = 0, uses_anonymous_args = 0
 223              		@ link register save eliminated.
  41:src/sys/syscalls.c ****   errno = ENOSYS;
 224              		.loc 1 41 3 view .LVU36
 225              		.loc 1 41 9 is_stmt 0 view .LVU37
 226 0054 024B     		ldr	r3, .L19
 227 0056 5822     		movs	r2, #88
 228 0058 1A60     		str	r2, [r3]
  42:src/sys/syscalls.c ****   return -1;
 229              		.loc 1 42 3 is_stmt 1 view .LVU38
  43:src/sys/syscalls.c **** }
 230              		.loc 1 43 1 is_stmt 0 view .LVU39
 231 005a 4FF0FF30 		mov	r0, #-1
 232              	.LVL12:
 233              		.loc 1 43 1 view .LVU40
 234 005e 7047     		bx	lr
 235              	.L20:
 236              		.align	2
 237              	.L19:
 238 0060 00000000 		.word	errno
 239              		.cfi_endproc
 240              	.LFE403:
 241              		.size	_link, .-_link
 242              		.align	1
 243              		.global	_lseek
 244              		.syntax unified
 245              		.thumb
 246              		.thumb_func
 247              		.fpu fpv4-sp-d16
 248              		.type	_lseek, %function
 249              	_lseek:
 250              	.LVL13:
 251              	.LFB404:
  44:src/sys/syscalls.c **** 
  45:src/sys/syscalls.c **** int _lseek(int file, int ptr, int dir) {
 252              		.loc 1 45 40 is_stmt 1 view -0
 253              		.cfi_startproc
 254              		@ args = 0, pretend = 0, frame = 0
 255              		@ frame_needed = 0, uses_anonymous_args = 0
 256              		@ link register save eliminated.
  46:src/sys/syscalls.c ****   errno=ENOSYS;
 257              		.loc 1 46 3 view .LVU42
 258              		.loc 1 46 8 is_stmt 0 view .LVU43
 259 0064 024B     		ldr	r3, .L22
 260 0066 5822     		movs	r2, #88
 261              	.LVL14:
 262              		.loc 1 46 8 view .LVU44
 263 0068 1A60     		str	r2, [r3]
  47:src/sys/syscalls.c ****   return -1;
 264              		.loc 1 47 3 is_stmt 1 view .LVU45
  48:src/sys/syscalls.c **** }
 265              		.loc 1 48 1 is_stmt 0 view .LVU46
 266 006a 4FF0FF30 		mov	r0, #-1
 267              	.LVL15:
 268              		.loc 1 48 1 view .LVU47
 269 006e 7047     		bx	lr
 270              	.L23:
 271              		.align	2
 272              	.L22:
 273 0070 00000000 		.word	errno
 274              		.cfi_endproc
 275              	.LFE404:
 276              		.size	_lseek, .-_lseek
 277              		.align	1
 278              		.global	_fstat
 279              		.syntax unified
 280              		.thumb
 281              		.thumb_func
 282              		.fpu fpv4-sp-d16
 283              		.type	_fstat, %function
 284              	_fstat:
 285              	.LVL16:
 286              	.LFB405:
  49:src/sys/syscalls.c **** 
  50:src/sys/syscalls.c **** int _fstat(int file, struct stat *st) {
 287              		.loc 1 50 39 is_stmt 1 view -0
 288              		.cfi_startproc
 289              		@ args = 0, pretend = 0, frame = 0
 290              		@ frame_needed = 0, uses_anonymous_args = 0
 291              		@ link register save eliminated.
  51:src/sys/syscalls.c ****   errno=ENOSYS;
 292              		.loc 1 51 3 view .LVU49
 293              		.loc 1 51 8 is_stmt 0 view .LVU50
 294 0074 024B     		ldr	r3, .L25
 295 0076 5822     		movs	r2, #88
 296 0078 1A60     		str	r2, [r3]
  52:src/sys/syscalls.c ****   return -1;
 297              		.loc 1 52 3 is_stmt 1 view .LVU51
  53:src/sys/syscalls.c **** }
 298              		.loc 1 53 1 is_stmt 0 view .LVU52
 299 007a 4FF0FF30 		mov	r0, #-1
 300              	.LVL17:
 301              		.loc 1 53 1 view .LVU53
 302 007e 7047     		bx	lr
 303              	.L26:
 304              		.align	2
 305              	.L25:
 306 0080 00000000 		.word	errno
 307              		.cfi_endproc
 308              	.LFE405:
 309              		.size	_fstat, .-_fstat
 310              		.align	1
 311              		.global	_stat
 312              		.syntax unified
 313              		.thumb
 314              		.thumb_func
 315              		.fpu fpv4-sp-d16
 316              		.type	_stat, %function
 317              	_stat:
 318              	.LFB419:
 319              		.cfi_startproc
 320              		@ args = 0, pretend = 0, frame = 0
 321              		@ frame_needed = 0, uses_anonymous_args = 0
 322              		@ link register save eliminated.
 323 0084 024B     		ldr	r3, .L28
 324 0086 5822     		movs	r2, #88
 325 0088 1A60     		str	r2, [r3]
 326 008a 4FF0FF30 		mov	r0, #-1
 327 008e 7047     		bx	lr
 328              	.L29:
 329              		.align	2
 330              	.L28:
 331 0090 00000000 		.word	errno
 332              		.cfi_endproc
 333              	.LFE419:
 334              		.size	_stat, .-_stat
 335              		.align	1
 336              		.global	_times
 337              		.syntax unified
 338              		.thumb
 339              		.thumb_func
 340              		.fpu fpv4-sp-d16
 341              		.type	_times, %function
 342              	_times:
 343              	.LVL18:
 344              	.LFB407:
  54:src/sys/syscalls.c **** 
  55:src/sys/syscalls.c **** int _stat(const char *filepath, struct stat *st) {
  56:src/sys/syscalls.c ****     errno=ENOSYS;
  57:src/sys/syscalls.c ****     return -1;
  58:src/sys/syscalls.c **** }
  59:src/sys/syscalls.c **** 
  60:src/sys/syscalls.c **** clock_t _times(struct tms *buf) {
 345              		.loc 1 60 33 is_stmt 1 view -0
 346              		.cfi_startproc
 347              		@ args = 0, pretend = 0, frame = 0
 348              		@ frame_needed = 0, uses_anonymous_args = 0
 349              		@ link register save eliminated.
  61:src/sys/syscalls.c ****    errno=ENOSYS;
 350              		.loc 1 61 4 view .LVU55
 351              		.loc 1 61 9 is_stmt 0 view .LVU56
 352 0094 024B     		ldr	r3, .L31
 353 0096 5822     		movs	r2, #88
 354 0098 1A60     		str	r2, [r3]
  62:src/sys/syscalls.c ****    return -1;
 355              		.loc 1 62 4 is_stmt 1 view .LVU57
  63:src/sys/syscalls.c **** }
 356              		.loc 1 63 1 is_stmt 0 view .LVU58
 357 009a 4FF0FF30 		mov	r0, #-1
 358              	.LVL19:
 359              		.loc 1 63 1 view .LVU59
 360 009e 7047     		bx	lr
 361              	.L32:
 362              		.align	2
 363              	.L31:
 364 00a0 00000000 		.word	errno
 365              		.cfi_endproc
 366              	.LFE407:
 367              		.size	_times, .-_times
 368              		.align	1
 369              		.global	_unlink
 370              		.syntax unified
 371              		.thumb
 372              		.thumb_func
 373              		.fpu fpv4-sp-d16
 374              		.type	_unlink, %function
 375              	_unlink:
 376              	.LVL20:
 377              	.LFB408:
  64:src/sys/syscalls.c **** 
  65:src/sys/syscalls.c **** int _unlink(char *name) {
 378              		.loc 1 65 25 is_stmt 1 view -0
 379              		.cfi_startproc
 380              		@ args = 0, pretend = 0, frame = 0
 381              		@ frame_needed = 0, uses_anonymous_args = 0
 382              		@ link register save eliminated.
  66:src/sys/syscalls.c ****    errno = ENOSYS;
 383              		.loc 1 66 4 view .LVU61
 384              		.loc 1 66 10 is_stmt 0 view .LVU62
 385 00a4 024B     		ldr	r3, .L34
 386 00a6 5822     		movs	r2, #88
 387 00a8 1A60     		str	r2, [r3]
  67:src/sys/syscalls.c ****    return -1;
 388              		.loc 1 67 4 is_stmt 1 view .LVU63
  68:src/sys/syscalls.c **** }
 389              		.loc 1 68 1 is_stmt 0 view .LVU64
 390 00aa 4FF0FF30 		mov	r0, #-1
 391              	.LVL21:
 392              		.loc 1 68 1 view .LVU65
 393 00ae 7047     		bx	lr
 394              	.L35:
 395              		.align	2
 396              	.L34:
 397 00b0 00000000 		.word	errno
 398              		.cfi_endproc
 399              	.LFE408:
 400              		.size	_unlink, .-_unlink
 401              		.align	1
 402              		.global	_wait
 403              		.syntax unified
 404              		.thumb
 405              		.thumb_func
 406              		.fpu fpv4-sp-d16
 407              		.type	_wait, %function
 408              	_wait:
 409              	.LFB417:
 410              		.cfi_startproc
 411              		@ args = 0, pretend = 0, frame = 0
 412              		@ frame_needed = 0, uses_anonymous_args = 0
 413              		@ link register save eliminated.
 414 00b4 024B     		ldr	r3, .L37
 415 00b6 5822     		movs	r2, #88
 416 00b8 1A60     		str	r2, [r3]
 417 00ba 4FF0FF30 		mov	r0, #-1
 418 00be 7047     		bx	lr
 419              	.L38:
 420              		.align	2
 421              	.L37:
 422 00c0 00000000 		.word	errno
 423              		.cfi_endproc
 424              	.LFE417:
 425              		.size	_wait, .-_wait
 426              		.align	1
 427              		.global	_getpid
 428              		.syntax unified
 429              		.thumb
 430              		.thumb_func
 431              		.fpu fpv4-sp-d16
 432              		.type	_getpid, %function
 433              	_getpid:
 434              	.LFB410:
  69:src/sys/syscalls.c **** 
  70:src/sys/syscalls.c **** int _wait(int status) {
  71:src/sys/syscalls.c ****     errno = ENOSYS;
  72:src/sys/syscalls.c ****     return -1;
  73:src/sys/syscalls.c **** }
  74:src/sys/syscalls.c **** 
  75:src/sys/syscalls.c **** /*
  76:src/sys/syscalls.c ****  getpid
  77:src/sys/syscalls.c ****  Return current process ID (only one process).
  78:src/sys/syscalls.c **** */
  79:src/sys/syscalls.c **** 
  80:src/sys/syscalls.c **** int _getpid() {
 435              		.loc 1 80 15 is_stmt 1 view -0
 436              		.cfi_startproc
 437              		@ args = 0, pretend = 0, frame = 0
 438              		@ frame_needed = 0, uses_anonymous_args = 0
 439              		@ link register save eliminated.
  81:src/sys/syscalls.c ****   return 1;
 440              		.loc 1 81 3 view .LVU67
  82:src/sys/syscalls.c **** }
 441              		.loc 1 82 1 is_stmt 0 view .LVU68
 442 00c4 0120     		movs	r0, #1
 443 00c6 7047     		bx	lr
 444              		.cfi_endproc
 445              	.LFE410:
 446              		.size	_getpid, .-_getpid
 447              		.align	1
 448              		.global	_isatty
 449              		.syntax unified
 450              		.thumb
 451              		.thumb_func
 452              		.fpu fpv4-sp-d16
 453              		.type	_isatty, %function
 454              	_isatty:
 455              	.LVL22:
 456              	.LFB411:
  83:src/sys/syscalls.c **** 
  84:src/sys/syscalls.c **** /*
  85:src/sys/syscalls.c ****  isatty
  86:src/sys/syscalls.c ****  Query whether output stream is a terminal. For consistency with the other
  87:src/sys/syscalls.c ****  minimal implementations,
  88:src/sys/syscalls.c **** */
  89:src/sys/syscalls.c **** 
  90:src/sys/syscalls.c **** int _isatty(int file) {
 457              		.loc 1 90 23 is_stmt 1 view -0
 458              		.cfi_startproc
 459              		@ args = 0, pretend = 0, frame = 0
 460              		@ frame_needed = 0, uses_anonymous_args = 0
 461              		@ link register save eliminated.
  91:src/sys/syscalls.c ****     switch (file){
 462              		.loc 1 91 5 view .LVU70
 463 00c8 0228     		cmp	r0, #2
  92:src/sys/syscalls.c ****     case STDOUT_FILENO:
  93:src/sys/syscalls.c ****     case STDERR_FILENO:
  94:src/sys/syscalls.c ****     case STDIN_FILENO:
  95:src/sys/syscalls.c ****         return 1;
  96:src/sys/syscalls.c ****     default:
  97:src/sys/syscalls.c ****         errno = EBADF;
 464              		.loc 1 97 9 view .LVU71
 465              		.loc 1 97 15 is_stmt 0 view .LVU72
 466 00ca 81BF     		itttt	hi
 467 00cc 034B     		ldrhi	r3, .L43
 468 00ce 0922     		movhi	r2, #9
  98:src/sys/syscalls.c ****         return 0;
 469              		.loc 1 98 16 view .LVU73
 470 00d0 0020     		movhi	r0, #0
 471              	.LVL23:
  97:src/sys/syscalls.c ****         return 0;
 472              		.loc 1 97 15 view .LVU74
 473 00d2 1A60     		strhi	r2, [r3]
 474              		.loc 1 98 9 is_stmt 1 view .LVU75
  95:src/sys/syscalls.c ****     default:
 475              		.loc 1 95 16 is_stmt 0 view .LVU76
 476 00d4 98BF     		it	ls
 477 00d6 0120     		movls	r0, #1
  99:src/sys/syscalls.c ****     }
 100:src/sys/syscalls.c **** }
 478              		.loc 1 100 1 view .LVU77
 479 00d8 7047     		bx	lr
 480              	.L44:
 481 00da 00BF     		.align	2
 482              	.L43:
 483 00dc 00000000 		.word	errno
 484              		.cfi_endproc
 485              	.LFE411:
 486              		.size	_isatty, .-_isatty
 487              		.align	1
 488              		.global	_read
 489              		.syntax unified
 490              		.thumb
 491              		.thumb_func
 492              		.fpu fpv4-sp-d16
 493              		.type	_read, %function
 494              	_read:
 495              	.LVL24:
 496              	.LFB412:
 101:src/sys/syscalls.c **** 
 102:src/sys/syscalls.c **** #ifndef STDOUT_USART
 103:src/sys/syscalls.c **** #define STDOUT_USART USART2
 104:src/sys/syscalls.c **** #endif
 105:src/sys/syscalls.c **** 
 106:src/sys/syscalls.c **** #ifndef STDERR_USART
 107:src/sys/syscalls.c **** #define STDERR_USART USART2
 108:src/sys/syscalls.c **** #endif
 109:src/sys/syscalls.c **** 
 110:src/sys/syscalls.c **** #ifndef STDIN_USART
 111:src/sys/syscalls.c **** #define STDIN_USART USART2
 112:src/sys/syscalls.c **** #endif
 113:src/sys/syscalls.c **** 
 114:src/sys/syscalls.c **** /*
 115:src/sys/syscalls.c ****  read
 116:src/sys/syscalls.c ****  Read a character to a file. `libc' subroutines will use this system routine for input from all fil
 117:src/sys/syscalls.c ****  Returns -1 on error or blocks until the number of characters have been read.
 118:src/sys/syscalls.c ****  */
 119:src/sys/syscalls.c **** 
 120:src/sys/syscalls.c **** int _read(int file, char *ptr, int len) {
 497              		.loc 1 120 41 is_stmt 1 view -0
 498              		.cfi_startproc
 499              		@ args = 0, pretend = 0, frame = 0
 500              		@ frame_needed = 0, uses_anonymous_args = 0
 121:src/sys/syscalls.c ****     int n;
 501              		.loc 1 121 5 view .LVU79
 122:src/sys/syscalls.c ****     int num = 0;
 502              		.loc 1 122 5 view .LVU80
 123:src/sys/syscalls.c ****     switch (file) {
 503              		.loc 1 123 5 view .LVU81
 120:src/sys/syscalls.c ****     int n;
 504              		.loc 1 120 41 is_stmt 0 view .LVU82
 505 00e0 10B5     		push	{r4, lr}
 506              		.cfi_def_cfa_offset 8
 507              		.cfi_offset 4, -8
 508              		.cfi_offset 14, -4
 509              		.loc 1 123 5 view .LVU83
 510 00e2 88B1     		cbz	r0, .L50
 124:src/sys/syscalls.c ****     case STDIN_FILENO:
 125:src/sys/syscalls.c ****         for (n = 0; n < len; n++) {
 126:src/sys/syscalls.c **** 	  while ((STDIN_USART.SR & (1<<5)) == 0) {}
 127:src/sys/syscalls.c ****             *ptr++ = STDIN_USART.DR & 0xff;
 128:src/sys/syscalls.c ****             num++;
 129:src/sys/syscalls.c ****         }
 130:src/sys/syscalls.c ****         break;
 131:src/sys/syscalls.c ****     default:
 132:src/sys/syscalls.c ****         errno = EBADF;
 511              		.loc 1 132 9 is_stmt 1 view .LVU84
 512              		.loc 1 132 15 is_stmt 0 view .LVU85
 513 00e4 0A4B     		ldr	r3, .L55
 514 00e6 0922     		movs	r2, #9
 515              	.LVL25:
 516              		.loc 1 132 15 view .LVU86
 517 00e8 1A60     		str	r2, [r3]
 133:src/sys/syscalls.c ****         return -1;
 518              		.loc 1 133 9 is_stmt 1 view .LVU87
 519              		.loc 1 133 16 is_stmt 0 view .LVU88
 520 00ea 4FF0FF30 		mov	r0, #-1
 521              	.LVL26:
 522              		.loc 1 133 16 view .LVU89
 523 00ee 0AE0     		b	.L45
 524              	.LVL27:
 525              	.L48:
 126:src/sys/syscalls.c ****             *ptr++ = STDIN_USART.DR & 0xff;
 526              		.loc 1 126 44 is_stmt 1 discriminator 1 view .LVU90
 126:src/sys/syscalls.c ****             *ptr++ = STDIN_USART.DR & 0xff;
 527              		.loc 1 126 10 discriminator 1 view .LVU91
 126:src/sys/syscalls.c ****             *ptr++ = STDIN_USART.DR & 0xff;
 528              		.loc 1 126 23 is_stmt 0 discriminator 1 view .LVU92
 529 00f0 0468     		ldr	r4, [r0]
 126:src/sys/syscalls.c ****             *ptr++ = STDIN_USART.DR & 0xff;
 530              		.loc 1 126 10 discriminator 1 view .LVU93
 531 00f2 A406     		lsls	r4, r4, #26
 532 00f4 FCD5     		bpl	.L48
 127:src/sys/syscalls.c ****             num++;
 533              		.loc 1 127 13 is_stmt 1 discriminator 2 view .LVU94
 127:src/sys/syscalls.c ****             num++;
 534              		.loc 1 127 33 is_stmt 0 discriminator 2 view .LVU95
 535 00f6 4468     		ldr	r4, [r0, #4]
 536              	.LVL28:
 127:src/sys/syscalls.c ****             num++;
 537              		.loc 1 127 20 discriminator 2 view .LVU96
 538 00f8 03F8014B 		strb	r4, [r3], #1
 539              	.LVL29:
 128:src/sys/syscalls.c ****         }
 540              		.loc 1 128 13 is_stmt 1 discriminator 2 view .LVU97
 125:src/sys/syscalls.c **** 	  while ((STDIN_USART.SR & (1<<5)) == 0) {}
 541              		.loc 1 125 30 discriminator 2 view .LVU98
 542              	.L46:
 125:src/sys/syscalls.c **** 	  while ((STDIN_USART.SR & (1<<5)) == 0) {}
 543              		.loc 1 125 21 discriminator 1 view .LVU99
 125:src/sys/syscalls.c **** 	  while ((STDIN_USART.SR & (1<<5)) == 0) {}
 544              		.loc 1 125 9 is_stmt 0 discriminator 1 view .LVU100
 545 00fc 5C1A     		subs	r4, r3, r1
 546              	.LVL30:
 125:src/sys/syscalls.c **** 	  while ((STDIN_USART.SR & (1<<5)) == 0) {}
 547              		.loc 1 125 9 discriminator 1 view .LVU101
 548 00fe A242     		cmp	r2, r4
 549 0100 F6DC     		bgt	.L48
 125:src/sys/syscalls.c **** 	  while ((STDIN_USART.SR & (1<<5)) == 0) {}
 550              		.loc 1 125 9 discriminator 1 view .LVU102
 551 0102 22EAE270 		bic	r0, r2, r2, asr #31
 552              	.LVL31:
 553              	.L45:
 134:src/sys/syscalls.c ****     }
 135:src/sys/syscalls.c ****     return num;
 136:src/sys/syscalls.c **** }
 554              		.loc 1 136 1 view .LVU103
 555 0106 10BD     		pop	{r4, pc}
 556              	.LVL32:
 557              	.L50:
 126:src/sys/syscalls.c ****             *ptr++ = STDIN_USART.DR & 0xff;
 558              		.loc 1 126 23 view .LVU104
 559 0108 0248     		ldr	r0, .L55+4
 560              	.LVL33:
 123:src/sys/syscalls.c ****     case STDIN_FILENO:
 561              		.loc 1 123 5 view .LVU105
 562 010a 0B46     		mov	r3, r1
 563 010c F6E7     		b	.L46
 564              	.L56:
 565 010e 00BF     		.align	2
 566              	.L55:
 567 0110 00000000 		.word	errno
 568 0114 00000000 		.word	USART2
 569              		.cfi_endproc
 570              	.LFE412:
 571              		.size	_read, .-_read
 572              		.align	1
 573              		.global	_write
 574              		.syntax unified
 575              		.thumb
 576              		.thumb_func
 577              		.fpu fpv4-sp-d16
 578              		.type	_write, %function
 579              	_write:
 580              	.LVL34:
 581              	.LFB413:
 137:src/sys/syscalls.c **** 
 138:src/sys/syscalls.c **** /*
 139:src/sys/syscalls.c ****  write
 140:src/sys/syscalls.c ****  Write a character to a file. `libc' subroutines will use this system routine for output to all fil
 141:src/sys/syscalls.c ****  Returns -1 on error or number of bytes sent
 142:src/sys/syscalls.c ****  */
 143:src/sys/syscalls.c **** 
 144:src/sys/syscalls.c **** int _write(int file, char *ptr, int len) {
 582              		.loc 1 144 42 is_stmt 1 view -0
 583              		.cfi_startproc
 584              		@ args = 0, pretend = 0, frame = 0
 585              		@ frame_needed = 0, uses_anonymous_args = 0
 145:src/sys/syscalls.c ****     int n;
 586              		.loc 1 145 5 view .LVU107
 146:src/sys/syscalls.c ****     switch (file) {
 587              		.loc 1 146 5 view .LVU108
 588 0118 0128     		cmp	r0, #1
 144:src/sys/syscalls.c ****     int n;
 589              		.loc 1 144 42 is_stmt 0 view .LVU109
 590 011a 10B5     		push	{r4, lr}
 591              		.cfi_def_cfa_offset 8
 592              		.cfi_offset 4, -8
 593              		.cfi_offset 14, -4
 594              		.loc 1 146 5 view .LVU110
 595 011c 12D0     		beq	.L65
 596 011e 0228     		cmp	r0, #2
 597 0120 1DD0     		beq	.L66
 147:src/sys/syscalls.c ****     case STDOUT_FILENO: /* stdout */
 148:src/sys/syscalls.c ****         for (n = 0; n < len; n++) {
 149:src/sys/syscalls.c **** 
 150:src/sys/syscalls.c ****     	  while ((STDOUT_USART.SR & (1<<7)) == 0) {}
 151:src/sys/syscalls.c ****           STDOUT_USART.DR = *ptr++;
 152:src/sys/syscalls.c ****         }
 153:src/sys/syscalls.c ****         break;
 154:src/sys/syscalls.c ****     case STDERR_FILENO: /* stderr */
 155:src/sys/syscalls.c ****         for (n = 0; n < len; n++) {
 156:src/sys/syscalls.c **** 
 157:src/sys/syscalls.c ****     	  while ((STDERR_USART.SR & (1<<7)) == 0) {}
 158:src/sys/syscalls.c ****           STDERR_USART.DR = *ptr++;
 159:src/sys/syscalls.c ****         }
 160:src/sys/syscalls.c ****         break;
 161:src/sys/syscalls.c ****     default:
 162:src/sys/syscalls.c ****         errno = EBADF;
 598              		.loc 1 162 9 is_stmt 1 view .LVU111
 599              		.loc 1 162 15 is_stmt 0 view .LVU112
 600 0122 104B     		ldr	r3, .L74
 601 0124 0922     		movs	r2, #9
 602              	.LVL35:
 603              		.loc 1 162 15 view .LVU113
 604 0126 1A60     		str	r2, [r3]
 163:src/sys/syscalls.c ****         return -1;
 605              		.loc 1 163 9 is_stmt 1 view .LVU114
 606              		.loc 1 163 16 is_stmt 0 view .LVU115
 607 0128 4FF0FF32 		mov	r2, #-1
 608 012c 08E0     		b	.L62
 609              	.LVL36:
 610              	.L61:
 611              	.LBB4:
 612              	.LBB5:
 150:src/sys/syscalls.c ****           STDOUT_USART.DR = *ptr++;
 613              		.loc 1 150 49 is_stmt 1 view .LVU116
 150:src/sys/syscalls.c ****           STDOUT_USART.DR = *ptr++;
 614              		.loc 1 150 14 view .LVU117
 150:src/sys/syscalls.c ****           STDOUT_USART.DR = *ptr++;
 615              		.loc 1 150 28 is_stmt 0 view .LVU118
 616 012e 0468     		ldr	r4, [r0]
 150:src/sys/syscalls.c ****           STDOUT_USART.DR = *ptr++;
 617              		.loc 1 150 14 view .LVU119
 618 0130 2406     		lsls	r4, r4, #24
 619 0132 FCD5     		bpl	.L61
 151:src/sys/syscalls.c ****         }
 620              		.loc 1 151 11 is_stmt 1 view .LVU120
 621              	.LVL37:
 151:src/sys/syscalls.c ****         }
 622              		.loc 1 151 29 is_stmt 0 view .LVU121
 623 0134 13F8014B 		ldrb	r4, [r3], #1	@ zero_extendqisi2
 624              	.LVL38:
 151:src/sys/syscalls.c ****         }
 625              		.loc 1 151 27 view .LVU122
 626 0138 4460     		str	r4, [r0, #4]
 148:src/sys/syscalls.c **** 
 627              		.loc 1 148 30 is_stmt 1 view .LVU123
 628              	.LVL39:
 629              	.L58:
 148:src/sys/syscalls.c **** 
 630              		.loc 1 148 21 view .LVU124
 148:src/sys/syscalls.c **** 
 631              		.loc 1 148 9 is_stmt 0 view .LVU125
 632 013a 5C1A     		subs	r4, r3, r1
 633              	.LVL40:
 148:src/sys/syscalls.c **** 
 634              		.loc 1 148 9 view .LVU126
 635 013c 9442     		cmp	r4, r2
 636 013e F6DB     		blt	.L61
 637              	.LVL41:
 638              	.L62:
 148:src/sys/syscalls.c **** 
 639              		.loc 1 148 9 view .LVU127
 640              	.LBE5:
 641              	.LBE4:
 164:src/sys/syscalls.c ****     }
 165:src/sys/syscalls.c ****     return len;
 166:src/sys/syscalls.c **** }
 642              		.loc 1 166 1 view .LVU128
 643 0140 1046     		mov	r0, r2
 644 0142 10BD     		pop	{r4, pc}
 645              	.LVL42:
 646              	.L65:
 647              	.LBB7:
 648              	.LBB6:
 150:src/sys/syscalls.c ****           STDOUT_USART.DR = *ptr++;
 649              		.loc 1 150 28 view .LVU129
 650 0144 0848     		ldr	r0, .L74+4
 651              	.LVL43:
 150:src/sys/syscalls.c ****           STDOUT_USART.DR = *ptr++;
 652              		.loc 1 150 28 view .LVU130
 653              	.LBE6:
 654              	.LBE7:
 146:src/sys/syscalls.c ****     case STDOUT_FILENO: /* stdout */
 655              		.loc 1 146 5 view .LVU131
 656 0146 0B46     		mov	r3, r1
 657 0148 F7E7     		b	.L58
 658              	.LVL44:
 659              	.L63:
 157:src/sys/syscalls.c ****           STDERR_USART.DR = *ptr++;
 660              		.loc 1 157 49 is_stmt 1 discriminator 1 view .LVU132
 157:src/sys/syscalls.c ****           STDERR_USART.DR = *ptr++;
 661              		.loc 1 157 14 discriminator 1 view .LVU133
 157:src/sys/syscalls.c ****           STDERR_USART.DR = *ptr++;
 662              		.loc 1 157 28 is_stmt 0 discriminator 1 view .LVU134
 663 014a 0468     		ldr	r4, [r0]
 157:src/sys/syscalls.c ****           STDERR_USART.DR = *ptr++;
 664              		.loc 1 157 14 discriminator 1 view .LVU135
 665 014c 2406     		lsls	r4, r4, #24
 666 014e FCD5     		bpl	.L63
 158:src/sys/syscalls.c ****         }
 667              		.loc 1 158 11 is_stmt 1 discriminator 2 view .LVU136
 668              	.LVL45:
 158:src/sys/syscalls.c ****         }
 669              		.loc 1 158 29 is_stmt 0 discriminator 2 view .LVU137
 670 0150 13F8014B 		ldrb	r4, [r3], #1	@ zero_extendqisi2
 671              	.LVL46:
 158:src/sys/syscalls.c ****         }
 672              		.loc 1 158 27 discriminator 2 view .LVU138
 673 0154 4460     		str	r4, [r0, #4]
 155:src/sys/syscalls.c **** 
 674              		.loc 1 155 30 is_stmt 1 discriminator 2 view .LVU139
 675              	.LVL47:
 676              	.L59:
 155:src/sys/syscalls.c **** 
 677              		.loc 1 155 21 discriminator 1 view .LVU140
 155:src/sys/syscalls.c **** 
 678              		.loc 1 155 9 is_stmt 0 discriminator 1 view .LVU141
 679 0156 5C1A     		subs	r4, r3, r1
 680              	.LVL48:
 155:src/sys/syscalls.c **** 
 681              		.loc 1 155 9 discriminator 1 view .LVU142
 682 0158 9442     		cmp	r4, r2
 683 015a F6DB     		blt	.L63
 155:src/sys/syscalls.c **** 
 684              		.loc 1 155 9 discriminator 1 view .LVU143
 685 015c F0E7     		b	.L62
 686              	.LVL49:
 687              	.L66:
 157:src/sys/syscalls.c ****           STDERR_USART.DR = *ptr++;
 688              		.loc 1 157 28 view .LVU144
 689 015e 0248     		ldr	r0, .L74+4
 690              	.LVL50:
 146:src/sys/syscalls.c ****     case STDOUT_FILENO: /* stdout */
 691              		.loc 1 146 5 view .LVU145
 692 0160 0B46     		mov	r3, r1
 693 0162 F8E7     		b	.L59
 694              	.L75:
 695              		.align	2
 696              	.L74:
 697 0164 00000000 		.word	errno
 698 0168 00000000 		.word	USART2
 699              		.cfi_endproc
 700              	.LFE413:
 701              		.size	_write, .-_write
 702              		.section	.rodata.str1.1,"aMS",%progbits,1
 703              	.LC0:
 704 0000 4F757420 		.ascii	"Out of heap space !!!\015\012\000"
 704      6F662068 
 704      65617020 
 704      73706163 
 704      65202121 
 705              		.text
 706              		.align	1
 707              		.global	_sbrk
 708              		.syntax unified
 709              		.thumb
 710              		.thumb_func
 711              		.fpu fpv4-sp-d16
 712              		.type	_sbrk, %function
 713              	_sbrk:
 714              	.LVL51:
 715              	.LFB414:
 167:src/sys/syscalls.c **** 
 168:src/sys/syscalls.c **** /*
 169:src/sys/syscalls.c ****  sbrk
 170:src/sys/syscalls.c ****  Increase program data space.
 171:src/sys/syscalls.c ****  Malloc and related functions depend on this
 172:src/sys/syscalls.c ****  */
 173:src/sys/syscalls.c **** 
 174:src/sys/syscalls.c **** caddr_t _sbrk(int incr) {
 716              		.loc 1 174 25 is_stmt 1 view -0
 717              		.cfi_startproc
 718              		@ args = 0, pretend = 0, frame = 0
 719              		@ frame_needed = 0, uses_anonymous_args = 0
 175:src/sys/syscalls.c **** 
 176:src/sys/syscalls.c ****     extern char __heap_bottom; /* Defined by the linker */
 720              		.loc 1 176 5 view .LVU147
 177:src/sys/syscalls.c ****     static char *heap_top=&__heap_bottom;
 721              		.loc 1 177 5 view .LVU148
 178:src/sys/syscalls.c **** 
 179:src/sys/syscalls.c ****     char *prev_heap_top=heap_top;
 722              		.loc 1 179 5 view .LVU149
 723              		.loc 1 179 11 is_stmt 0 view .LVU150
 724 016c 0C49     		ldr	r1, .L79
 174:src/sys/syscalls.c **** 
 725              		.loc 1 174 25 view .LVU151
 726 016e 10B5     		push	{r4, lr}
 727              		.cfi_def_cfa_offset 8
 728              		.cfi_offset 4, -8
 729              		.cfi_offset 14, -4
 730              		.loc 1 179 11 view .LVU152
 731 0170 0A68     		ldr	r2, [r1]
 732              	.LVL52:
 180:src/sys/syscalls.c **** 
 181:src/sys/syscalls.c ****     register char * stack_bottom ;
 733              		.loc 1 181 5 is_stmt 1 view .LVU153
 182:src/sys/syscalls.c **** 
 183:src/sys/syscalls.c ****     asm volatile ("MRS %0, msp\n" : "=r" (stack_bottom) );
 734              		.loc 1 183 5 view .LVU154
 735              		.syntax unified
 736              	@ 183 "src/sys/syscalls.c" 1
 737 0172 EFF30884 		MRS r4, msp
 738              	
 739              	@ 0 "" 2
 740              	.LVL53:
 184:src/sys/syscalls.c **** 
 185:src/sys/syscalls.c ****      if (heap_top + incr + 0x100 > stack_bottom)
 741              		.loc 1 185 6 view .LVU155
 742              		.loc 1 185 26 is_stmt 0 view .LVU156
 743              		.thumb
 744              		.syntax unified
 745 0176 00F58073 		add	r3, r0, #256
 746 017a 1344     		add	r3, r3, r2
 747              		.loc 1 185 9 view .LVU157
 748 017c 9C42     		cmp	r4, r3
 749 017e 0BD2     		bcs	.L77
 186:src/sys/syscalls.c ****      {
 187:src/sys/syscalls.c ****        _write (STDERR_FILENO, "Out of heap space !!!\r\n", 23);
 750              		.loc 1 187 8 is_stmt 1 view .LVU158
 751 0180 1722     		movs	r2, #23
 752              	.LVL54:
 753              		.loc 1 187 8 is_stmt 0 view .LVU159
 754 0182 0849     		ldr	r1, .L79+4
 755 0184 0220     		movs	r0, #2
 756              	.LVL55:
 757              		.loc 1 187 8 view .LVU160
 758 0186 FFF7FEFF 		bl	_write
 759              	.LVL56:
 188:src/sys/syscalls.c ****        errno = ENOMEM;
 760              		.loc 1 188 8 is_stmt 1 view .LVU161
 761              		.loc 1 188 14 is_stmt 0 view .LVU162
 762 018a 074B     		ldr	r3, .L79+8
 763 018c 0C22     		movs	r2, #12
 764 018e 1A60     		str	r2, [r3]
 189:src/sys/syscalls.c ****        return  (caddr_t) -1;
 765              		.loc 1 189 8 is_stmt 1 view .LVU163
 766              		.loc 1 189 16 is_stmt 0 view .LVU164
 767 0190 4FF0FF32 		mov	r2, #-1
 768              	.L76:
 190:src/sys/syscalls.c ****        exit(255);
 191:src/sys/syscalls.c ****      } else {
 192:src/sys/syscalls.c ****        heap_top += incr;
 193:src/sys/syscalls.c ****        return (caddr_t) prev_heap_top;
 194:src/sys/syscalls.c ****      }
 195:src/sys/syscalls.c **** }
 769              		.loc 1 195 1 view .LVU165
 770 0194 1046     		mov	r0, r2
 771 0196 10BD     		pop	{r4, pc}
 772              	.LVL57:
 773              	.L77:
 192:src/sys/syscalls.c ****        return (caddr_t) prev_heap_top;
 774              		.loc 1 192 8 is_stmt 1 view .LVU166
 192:src/sys/syscalls.c ****        return (caddr_t) prev_heap_top;
 775              		.loc 1 192 17 is_stmt 0 view .LVU167
 776 0198 1044     		add	r0, r0, r2
 777              	.LVL58:
 192:src/sys/syscalls.c ****        return (caddr_t) prev_heap_top;
 778              		.loc 1 192 17 view .LVU168
 779 019a 0860     		str	r0, [r1]
 193:src/sys/syscalls.c ****      }
 780              		.loc 1 193 8 is_stmt 1 view .LVU169
 193:src/sys/syscalls.c ****      }
 781              		.loc 1 193 15 is_stmt 0 view .LVU170
 782 019c FAE7     		b	.L76
 783              	.L80:
 784 019e 00BF     		.align	2
 785              	.L79:
 786 01a0 00000000 		.word	.LANCHOR0
 787 01a4 00000000 		.word	.LC0
 788 01a8 00000000 		.word	errno
 789              		.cfi_endproc
 790              	.LFE414:
 791              		.size	_sbrk, .-_sbrk
 792              		.global	environ
 793              		.global	__env
 794              		.data
 795              		.align	2
 796              		.set	.LANCHOR0,. + 0
 797              		.type	heap_top.0, %object
 798              		.size	heap_top.0, 4
 799              	heap_top.0:
 800 0000 00000000 		.word	__heap_bottom
 801              		.type	environ, %object
 802              		.size	environ, 4
 803              	environ:
 804 0004 00000000 		.word	__env
 805              		.bss
 806              		.align	2
 807              		.type	__env, %object
 808              		.size	__env, 4
 809              	__env:
 810 0000 00000000 		.space	4
 811              		.text
 812              	.Letext0:
 813              		.file 2 "/usr/include/newlib/machine/_default_types.h"
 814              		.file 3 "/usr/include/newlib/sys/_types.h"
 815              		.file 4 "/usr/include/newlib/sys/_stdint.h"
 816              		.file 5 "/usr/include/newlib/sys/_timeval.h"
 817              		.file 6 "/usr/include/newlib/sys/_timespec.h"
 818              		.file 7 "/usr/include/newlib/sys/types.h"
 819              		.file 8 "/usr/include/newlib/sys/stat.h"
 820              		.file 9 "/usr/include/newlib/sys/times.h"
 821              		.file 10 "src/sys/devices.h"
 822              		.file 11 "/usr/include/newlib/sys/unistd.h"