   1              		.arch armv7e-m
   2              		.eabi_attribute 27, 1
   3              		.eabi_attribute 28, 1
   4              		.eabi_attribute 20, 1
   5              		.eabi_attribute 21, 1
   6              		.eabi_attribute 23, 3
   7              		.eabi_attribute 24, 1
   8              		.eabi_attribute 25, 1
   9              		.eabi_attribute 26, 1
  10              		.eabi_attribute 30, 4
  11              		.eabi_attribute 34, 1
  12              		.eabi_attribute 18, 4
  13              		.file	"main.c"
  14              		.text
  15              	.Ltext0:
  16              		.cfi_sections	.debug_frame
  17              		.align	1
  18              		.global	init_LD1
  19              		.arch armv7e-m
  20              		.syntax unified
  21              		.thumb
  22              		.thumb_func
  23              		.fpu fpv4-sp-d16
  24              		.type	init_LD1, %function
  25              	init_LD1:
  26              	.LFB400:
  27              		.file 1 "src/main.c"
   1:src/main.c    **** #include <stdio.h>
   2:src/main.c    **** #include <math.h>
   3:src/main.c    **** #include <string.h>
   4:src/main.c    **** #include <stdlib.h>
   5:src/main.c    **** #include "sys/cm4.h"
   6:src/main.c    **** #include "sys/devices.h"
   7:src/main.c    **** #include "sys/init.h"
   8:src/main.c    **** #include "sys/clock.h"
   9:src/main.c    **** 
  10:src/main.c    **** void init_LD1(){
  28              		.loc 1 10 16 view -0
  29              		.cfi_startproc
  30              		@ args = 0, pretend = 0, frame = 0
  31              		@ frame_needed = 0, uses_anonymous_args = 0
  32              		@ link register save eliminated.
  11:src/main.c    **** 	RCC.AHB1ENR |= 0x01;
  33              		.loc 1 11 2 view .LVU1
  34              		.loc 1 11 14 is_stmt 0 view .LVU2
  35 0000 0C4A     		ldr	r2, .L2
  36 0002 136B     		ldr	r3, [r2, #48]
  37 0004 43F00103 		orr	r3, r3, #1
  38 0008 1363     		str	r3, [r2, #48]
  12:src/main.c    **** 	GPIOA.MODER = (GPIOA.MODER & 0xFFC0FFFF) | 0x00150000;  // Initialisation des ports A8 (rouge), A9
  39              		.loc 1 12 2 is_stmt 1 view .LVU3
  40              		.loc 1 12 22 is_stmt 0 view .LVU4
  41 000a 0B4B     		ldr	r3, .L2+4
  42 000c 1A68     		ldr	r2, [r3]
  43              		.loc 1 12 29 view .LVU5
  44 000e 22F47C12 		bic	r2, r2, #4128768
  45              		.loc 1 12 43 view .LVU6
  46 0012 42F4A812 		orr	r2, r2, #1376256
  47              		.loc 1 12 14 view .LVU7
  48 0016 1A60     		str	r2, [r3]
  13:src/main.c    **** 	GPIOA.OTYPER &= ~(0x1<<5);
  49              		.loc 1 13 2 is_stmt 1 view .LVU8
  50              		.loc 1 13 15 is_stmt 0 view .LVU9
  51 0018 5A68     		ldr	r2, [r3, #4]
  52 001a 22F02002 		bic	r2, r2, #32
  53 001e 5A60     		str	r2, [r3, #4]
  14:src/main.c    **** 	GPIOA.OSPEEDR |= 0x03<<10;
  54              		.loc 1 14 2 is_stmt 1 view .LVU10
  55              		.loc 1 14 16 is_stmt 0 view .LVU11
  56 0020 9A68     		ldr	r2, [r3, #8]
  57 0022 42F44062 		orr	r2, r2, #3072
  58 0026 9A60     		str	r2, [r3, #8]
  15:src/main.c    **** 	GPIOA.PUPDR &= 0xFFC0FFFF;
  59              		.loc 1 15 2 is_stmt 1 view .LVU12
  60              		.loc 1 15 14 is_stmt 0 view .LVU13
  61 0028 DA68     		ldr	r2, [r3, #12]
  62 002a 22F47C12 		bic	r2, r2, #4128768
  63 002e DA60     		str	r2, [r3, #12]
  16:src/main.c    **** 	
  17:src/main.c    ****     //GPIOA.MODER = GPIOA.MODER & ~(0x3F << 16); // Initialisation des ports A8 (rouge), A9 (vert) 
  18:src/main.c    **** }
  64              		.loc 1 18 1 view .LVU14
  65 0030 7047     		bx	lr
  66              	.L3:
  67 0032 00BF     		.align	2
  68              	.L2:
  69 0034 00000000 		.word	RCC
  70 0038 00000000 		.word	GPIOA
  71              		.cfi_endproc
  72              	.LFE400:
  73              		.size	init_LD1, .-init_LD1
  74              		.align	1
  75              		.global	systick_init
  76              		.syntax unified
  77              		.thumb
  78              		.thumb_func
  79              		.fpu fpv4-sp-d16
  80              		.type	systick_init, %function
  81              	systick_init:
  82              	.LVL0:
  83              	.LFB401:
  19:src/main.c    **** 
  20:src/main.c    **** /* Initialisation du timer système (systick) */
  21:src/main.c    **** void systick_init(uint32_t freq){
  84              		.loc 1 21 33 is_stmt 1 view -0
  85              		.cfi_startproc
  86              		@ args = 0, pretend = 0, frame = 0
  87              		@ frame_needed = 0, uses_anonymous_args = 0
  22:src/main.c    **** 	uint32_t p = get_SYSCLK()/freq;
  88              		.loc 1 22 2 view .LVU16
  21:src/main.c    **** 	uint32_t p = get_SYSCLK()/freq;
  89              		.loc 1 21 33 is_stmt 0 view .LVU17
  90 003c 10B5     		push	{r4, lr}
  91              		.cfi_def_cfa_offset 8
  92              		.cfi_offset 4, -8
  93              		.cfi_offset 14, -4
  21:src/main.c    **** 	uint32_t p = get_SYSCLK()/freq;
  94              		.loc 1 21 33 view .LVU18
  95 003e 0446     		mov	r4, r0
  96              		.loc 1 22 15 view .LVU19
  97 0040 FFF7FEFF 		bl	get_SYSCLK
  98              	.LVL1:
  23:src/main.c    **** 	SysTick.LOAD = (p-1) & 0x00FFFFFF;
  99              		.loc 1 23 2 is_stmt 1 view .LVU20
 100              		.loc 1 23 15 is_stmt 0 view .LVU21
 101 0044 064B     		ldr	r3, .L5
  22:src/main.c    **** 	uint32_t p = get_SYSCLK()/freq;
 102              		.loc 1 22 11 view .LVU22
 103 0046 B0FBF4F0 		udiv	r0, r0, r4
 104              	.LVL2:
 105              		.loc 1 23 19 view .LVU23
 106 004a 0138     		subs	r0, r0, #1
 107              	.LVL3:
  24:src/main.c    **** 	SysTick.VAL = 0;
 108              		.loc 1 24 14 view .LVU24
 109 004c 0022     		movs	r2, #0
  23:src/main.c    **** 	SysTick.LOAD = (p-1) & 0x00FFFFFF;
 110              		.loc 1 23 23 view .LVU25
 111 004e 20F07F40 		bic	r0, r0, #-16777216
 112              	.LVL4:
  23:src/main.c    **** 	SysTick.LOAD = (p-1) & 0x00FFFFFF;
 113              		.loc 1 23 15 view .LVU26
 114 0052 5860     		str	r0, [r3, #4]
 115              		.loc 1 24 2 is_stmt 1 view .LVU27
 116              		.loc 1 24 14 is_stmt 0 view .LVU28
 117 0054 9A60     		str	r2, [r3, #8]
  25:src/main.c    **** 	SysTick.CTRL |= 7;
 118              		.loc 1 25 2 is_stmt 1 view .LVU29
 119              		.loc 1 25 15 is_stmt 0 view .LVU30
 120 0056 1A68     		ldr	r2, [r3]
 121 0058 42F00702 		orr	r2, r2, #7
 122 005c 1A60     		str	r2, [r3]
  26:src/main.c    **** }
 123              		.loc 1 26 1 view .LVU31
 124 005e 10BD     		pop	{r4, pc}
 125              	.LVL5:
 126              	.L6:
 127              		.loc 1 26 1 view .LVU32
 128              		.align	2
 129              	.L5:
 130 0060 00000000 		.word	SysTick
 131              		.cfi_endproc
 132              	.LFE401:
 133              		.size	systick_init, .-systick_init
 134              		.align	1
 135              		.global	init_USART
 136              		.syntax unified
 137              		.thumb
 138              		.thumb_func
 139              		.fpu fpv4-sp-d16
 140              		.type	init_USART, %function
 141              	init_USART:
 142              	.LFB402:
  27:src/main.c    **** 
  28:src/main.c    **** /* Initialisation de l'USART */
  29:src/main.c    **** void init_USART(){
 143              		.loc 1 29 18 is_stmt 1 view -0
 144              		.cfi_startproc
 145              		@ args = 0, pretend = 0, frame = 0
 146              		@ frame_needed = 0, uses_anonymous_args = 0
  30:src/main.c    **** 	GPIOA.MODER = (GPIOA.MODER & 0xFFFFFF0F) | 0x000000A0;
 147              		.loc 1 30 2 view .LVU34
 148              		.loc 1 30 22 is_stmt 0 view .LVU35
 149 0064 0C4A     		ldr	r2, .L8
  29:src/main.c    **** 	GPIOA.MODER = (GPIOA.MODER & 0xFFFFFF0F) | 0x000000A0;
 150              		.loc 1 29 18 view .LVU36
 151 0066 08B5     		push	{r3, lr}
 152              		.cfi_def_cfa_offset 8
 153              		.cfi_offset 3, -8
 154              		.cfi_offset 14, -4
 155              		.loc 1 30 22 view .LVU37
 156 0068 1368     		ldr	r3, [r2]
 157              		.loc 1 30 29 view .LVU38
 158 006a 23F0F003 		bic	r3, r3, #240
 159              		.loc 1 30 43 view .LVU39
 160 006e 43F0A003 		orr	r3, r3, #160
 161              		.loc 1 30 14 view .LVU40
 162 0072 1360     		str	r3, [r2]
  31:src/main.c    **** 	GPIOA.AFRL = (GPIOA.AFRL & 0xFFFF00FF) | 0x00007700;
 163              		.loc 1 31 2 is_stmt 1 view .LVU41
 164              		.loc 1 31 21 is_stmt 0 view .LVU42
 165 0074 136A     		ldr	r3, [r2, #32]
 166              		.loc 1 31 27 view .LVU43
 167 0076 23F47F43 		bic	r3, r3, #65280
 168              		.loc 1 31 41 view .LVU44
 169 007a 43F4EE43 		orr	r3, r3, #30464
 170              		.loc 1 31 13 view .LVU45
 171 007e 1362     		str	r3, [r2, #32]
  32:src/main.c    **** 	USART2.BRR = get_APB1CLK()/9600;
 172              		.loc 1 32 2 is_stmt 1 view .LVU46
 173              		.loc 1 32 15 is_stmt 0 view .LVU47
 174 0080 FFF7FEFF 		bl	get_APB1CLK
 175              	.LVL6:
 176              		.loc 1 32 28 view .LVU48
 177 0084 4FF41653 		mov	r3, #9600
 178 0088 B0FBF3F0 		udiv	r0, r0, r3
 179              		.loc 1 32 13 view .LVU49
 180 008c 034B     		ldr	r3, .L8+4
  33:src/main.c    **** 	USART2.CR3 = 0;
 181              		.loc 1 33 13 view .LVU50
 182 008e 0022     		movs	r2, #0
  32:src/main.c    **** 	USART2.BRR = get_APB1CLK()/9600;
 183              		.loc 1 32 13 view .LVU51
 184 0090 9860     		str	r0, [r3, #8]
 185              		.loc 1 33 2 is_stmt 1 view .LVU52
 186              		.loc 1 33 13 is_stmt 0 view .LVU53
 187 0092 5A61     		str	r2, [r3, #20]
  34:src/main.c    **** 	USART2.CR2 = 0;
 188              		.loc 1 34 2 is_stmt 1 view .LVU54
 189              		.loc 1 34 13 is_stmt 0 view .LVU55
 190 0094 1A61     		str	r2, [r3, #16]
  35:src/main.c    **** }
 191              		.loc 1 35 1 view .LVU56
 192 0096 08BD     		pop	{r3, pc}
 193              	.L9:
 194              		.align	2
 195              	.L8:
 196 0098 00000000 		.word	GPIOA
 197 009c 00000000 		.word	USART2
 198              		.cfi_endproc
 199              	.LFE402:
 200              		.size	init_USART, .-init_USART
 201              		.align	1
 202              		.global	_putc
 203              		.syntax unified
 204              		.thumb
 205              		.thumb_func
 206              		.fpu fpv4-sp-d16
 207              		.type	_putc, %function
 208              	_putc:
 209              	.LVL7:
 210              	.LFB403:
  36:src/main.c    **** 
  37:src/main.c    **** void _putc(const char c){
 211              		.loc 1 37 25 is_stmt 1 view -0
 212              		.cfi_startproc
 213              		@ args = 0, pretend = 0, frame = 0
 214              		@ frame_needed = 0, uses_anonymous_args = 0
 215              		@ link register save eliminated.
  38:src/main.c    **** 	while( (USART2.SR & 0x80) == 0)
 216              		.loc 1 38 2 view .LVU58
 217              		.loc 1 38 16 is_stmt 0 view .LVU59
 218 00a0 024B     		ldr	r3, .L14
 219              	.L11:
  39:src/main.c    **** 	  ;  
 220              		.loc 1 39 4 is_stmt 1 discriminator 1 view .LVU60
  38:src/main.c    **** 	while( (USART2.SR & 0x80) == 0)
 221              		.loc 1 38 7 discriminator 1 view .LVU61
  38:src/main.c    **** 	while( (USART2.SR & 0x80) == 0)
 222              		.loc 1 38 16 is_stmt 0 discriminator 1 view .LVU62
 223 00a2 1A68     		ldr	r2, [r3]
  38:src/main.c    **** 	while( (USART2.SR & 0x80) == 0)
 224              		.loc 1 38 7 discriminator 1 view .LVU63
 225 00a4 1206     		lsls	r2, r2, #24
 226 00a6 FCD5     		bpl	.L11
  40:src/main.c    **** 	USART2.DR = c;
 227              		.loc 1 40 2 is_stmt 1 view .LVU64
 228              		.loc 1 40 12 is_stmt 0 view .LVU65
 229 00a8 5860     		str	r0, [r3, #4]
  41:src/main.c    **** }
 230              		.loc 1 41 1 view .LVU66
 231 00aa 7047     		bx	lr
 232              	.L15:
 233              		.align	2
 234              	.L14:
 235 00ac 00000000 		.word	USART2
 236              		.cfi_endproc
 237              	.LFE403:
 238              		.size	_putc, .-_putc
 239              		.align	1
 240              		.global	_puts
 241              		.syntax unified
 242              		.thumb
 243              		.thumb_func
 244              		.fpu fpv4-sp-d16
 245              		.type	_puts, %function
 246              	_puts:
 247              	.LVL8:
 248              	.LFB404:
  42:src/main.c    **** 
  43:src/main.c    **** void _puts(const char *c){
 249              		.loc 1 43 26 is_stmt 1 view -0
 250              		.cfi_startproc
 251              		@ args = 0, pretend = 0, frame = 0
 252              		@ frame_needed = 0, uses_anonymous_args = 0
  44:src/main.c    **** 	int len = strlen(c);
 253              		.loc 1 44 2 view .LVU68
  43:src/main.c    **** 	int len = strlen(c);
 254              		.loc 1 43 26 is_stmt 0 view .LVU69
 255 00b0 38B5     		push	{r3, r4, r5, lr}
 256              		.cfi_def_cfa_offset 16
 257              		.cfi_offset 3, -16
 258              		.cfi_offset 4, -12
 259              		.cfi_offset 5, -8
 260              		.cfi_offset 14, -4
  43:src/main.c    **** 	int len = strlen(c);
 261              		.loc 1 43 26 view .LVU70
 262 00b2 0546     		mov	r5, r0
 263              		.loc 1 44 12 view .LVU71
 264 00b4 FFF7FEFF 		bl	strlen
 265              	.LVL9:
 266              	.LBB2:
  45:src/main.c    **** 	for (int i=0;i<len;i++){
 267              		.loc 1 45 11 view .LVU72
 268 00b8 0021     		movs	r1, #0
 269              	.LBE2:
  44:src/main.c    **** 	int len = strlen(c);
 270              		.loc 1 44 12 view .LVU73
 271 00ba 0446     		mov	r4, r0
 272              	.LVL10:
 273              		.loc 1 45 2 is_stmt 1 view .LVU74
 274              	.LBB3:
 275              		.loc 1 45 7 view .LVU75
 276              	.L17:
 277              		.loc 1 45 15 discriminator 1 view .LVU76
 278              		.loc 1 45 2 is_stmt 0 discriminator 1 view .LVU77
 279 00bc A142     		cmp	r1, r4
 280 00be 00DB     		blt	.L18
 281              	.LBE3:
  46:src/main.c    **** 		_putc(c[i]);
  47:src/main.c    **** 	}
  48:src/main.c    **** }
 282              		.loc 1 48 1 view .LVU78
 283 00c0 38BD     		pop	{r3, r4, r5, pc}
 284              	.LVL11:
 285              	.L18:
 286              	.LBB4:
  46:src/main.c    **** 		_putc(c[i]);
 287              		.loc 1 46 3 is_stmt 1 discriminator 3 view .LVU79
 288 00c2 685C     		ldrb	r0, [r5, r1]	@ zero_extendqisi2
 289 00c4 FFF7FEFF 		bl	_putc
 290              	.LVL12:
  45:src/main.c    **** 	for (int i=0;i<len;i++){
 291              		.loc 1 45 21 discriminator 3 view .LVU80
  45:src/main.c    **** 	for (int i=0;i<len;i++){
 292              		.loc 1 45 22 is_stmt 0 discriminator 3 view .LVU81
 293 00c8 0131     		adds	r1, r1, #1
 294              	.LVL13:
  45:src/main.c    **** 	for (int i=0;i<len;i++){
 295              		.loc 1 45 22 discriminator 3 view .LVU82
 296 00ca F7E7     		b	.L17
 297              	.LBE4:
 298              		.cfi_endproc
 299              	.LFE404:
 300              		.size	_puts, .-_puts
 301              		.align	1
 302              		.global	_getc
 303              		.syntax unified
 304              		.thumb
 305              		.thumb_func
 306              		.fpu fpv4-sp-d16
 307              		.type	_getc, %function
 308              	_getc:
 309              	.LFB405:
  49:src/main.c    **** 
  50:src/main.c    **** char _getc(){
 310              		.loc 1 50 13 is_stmt 1 view -0
 311              		.cfi_startproc
 312              		@ args = 0, pretend = 0, frame = 0
 313              		@ frame_needed = 0, uses_anonymous_args = 0
 314              		@ link register save eliminated.
  51:src/main.c    ****   while( (USART2.SR & 0x20) == 0); 
 315              		.loc 1 51 3 view .LVU84
 316              		.loc 1 51 17 is_stmt 0 view .LVU85
 317 00cc 034B     		ldr	r3, .L23
 318              	.L20:
 319              		.loc 1 51 34 is_stmt 1 discriminator 1 view .LVU86
 320              		.loc 1 51 8 discriminator 1 view .LVU87
 321              		.loc 1 51 17 is_stmt 0 discriminator 1 view .LVU88
 322 00ce 1A68     		ldr	r2, [r3]
 323              		.loc 1 51 8 discriminator 1 view .LVU89
 324 00d0 9206     		lsls	r2, r2, #26
 325 00d2 FCD5     		bpl	.L20
  52:src/main.c    ****   return USART2.DR;
 326              		.loc 1 52 3 is_stmt 1 view .LVU90
 327              		.loc 1 52 16 is_stmt 0 view .LVU91
 328 00d4 5868     		ldr	r0, [r3, #4]
  53:src/main.c    ****   
  54:src/main.c    **** }
 329              		.loc 1 54 1 view .LVU92
 330 00d6 C0B2     		uxtb	r0, r0
 331 00d8 7047     		bx	lr
 332              	.L24:
 333 00da 00BF     		.align	2
 334              	.L23:
 335 00dc 00000000 		.word	USART2
 336              		.cfi_endproc
 337              	.LFE405:
 338              		.size	_getc, .-_getc
 339              		.align	1
 340              		.global	LD1_red_on
 341              		.syntax unified
 342              		.thumb
 343              		.thumb_func
 344              		.fpu fpv4-sp-d16
 345              		.type	LD1_red_on, %function
 346              	LD1_red_on:
 347              	.LFB406:
  55:src/main.c    **** 
  56:src/main.c    **** 
  57:src/main.c    **** void LD1_red_on(){
 348              		.loc 1 57 18 is_stmt 1 view -0
 349              		.cfi_startproc
 350              		@ args = 0, pretend = 0, frame = 0
 351              		@ frame_needed = 0, uses_anonymous_args = 0
 352              		@ link register save eliminated.
  58:src/main.c    ****     GPIOA.ODR = GPIOA.ODR | (0x1 << 8);
 353              		.loc 1 58 5 view .LVU94
 354              		.loc 1 58 22 is_stmt 0 view .LVU95
 355 00e0 024A     		ldr	r2, .L26
 356 00e2 5369     		ldr	r3, [r2, #20]
 357              		.loc 1 58 27 view .LVU96
 358 00e4 43F48073 		orr	r3, r3, #256
 359              		.loc 1 58 15 view .LVU97
 360 00e8 5361     		str	r3, [r2, #20]
  59:src/main.c    **** 	/* GPIOA.ODR = 0xFFFFFFFF; */
  60:src/main.c    **** }
 361              		.loc 1 60 1 view .LVU98
 362 00ea 7047     		bx	lr
 363              	.L27:
 364              		.align	2
 365              	.L26:
 366 00ec 00000000 		.word	GPIOA
 367              		.cfi_endproc
 368              	.LFE406:
 369              		.size	LD1_red_on, .-LD1_red_on
 370              		.align	1
 371              		.global	LD1_green_on
 372              		.syntax unified
 373              		.thumb
 374              		.thumb_func
 375              		.fpu fpv4-sp-d16
 376              		.type	LD1_green_on, %function
 377              	LD1_green_on:
 378              	.LFB407:
  61:src/main.c    **** 
  62:src/main.c    **** void LD1_green_on(){
 379              		.loc 1 62 20 is_stmt 1 view -0
 380              		.cfi_startproc
 381              		@ args = 0, pretend = 0, frame = 0
 382              		@ frame_needed = 0, uses_anonymous_args = 0
 383              		@ link register save eliminated.
  63:src/main.c    ****     GPIOA.ODR = GPIOA.ODR | (0x1 << 9);
 384              		.loc 1 63 5 view .LVU100
 385              		.loc 1 63 22 is_stmt 0 view .LVU101
 386 00f0 024A     		ldr	r2, .L29
 387 00f2 5369     		ldr	r3, [r2, #20]
 388              		.loc 1 63 27 view .LVU102
 389 00f4 43F40073 		orr	r3, r3, #512
 390              		.loc 1 63 15 view .LVU103
 391 00f8 5361     		str	r3, [r2, #20]
  64:src/main.c    **** }
 392              		.loc 1 64 1 view .LVU104
 393 00fa 7047     		bx	lr
 394              	.L30:
 395              		.align	2
 396              	.L29:
 397 00fc 00000000 		.word	GPIOA
 398              		.cfi_endproc
 399              	.LFE407:
 400              		.size	LD1_green_on, .-LD1_green_on
 401              		.align	1
 402              		.global	LD1_blue_on
 403              		.syntax unified
 404              		.thumb
 405              		.thumb_func
 406              		.fpu fpv4-sp-d16
 407              		.type	LD1_blue_on, %function
 408              	LD1_blue_on:
 409              	.LFB408:
  65:src/main.c    **** 
  66:src/main.c    **** void LD1_blue_on(){
 410              		.loc 1 66 19 is_stmt 1 view -0
 411              		.cfi_startproc
 412              		@ args = 0, pretend = 0, frame = 0
 413              		@ frame_needed = 0, uses_anonymous_args = 0
 414              		@ link register save eliminated.
  67:src/main.c    ****     GPIOA.ODR = GPIOA.ODR | (0x1 << 10);
 415              		.loc 1 67 5 view .LVU106
 416              		.loc 1 67 22 is_stmt 0 view .LVU107
 417 0100 024A     		ldr	r2, .L32
 418 0102 5369     		ldr	r3, [r2, #20]
 419              		.loc 1 67 27 view .LVU108
 420 0104 43F48063 		orr	r3, r3, #1024
 421              		.loc 1 67 15 view .LVU109
 422 0108 5361     		str	r3, [r2, #20]
  68:src/main.c    **** }
 423              		.loc 1 68 1 view .LVU110
 424 010a 7047     		bx	lr
 425              	.L33:
 426              		.align	2
 427              	.L32:
 428 010c 00000000 		.word	GPIOA
 429              		.cfi_endproc
 430              	.LFE408:
 431              		.size	LD1_blue_on, .-LD1_blue_on
 432              		.align	1
 433              		.global	tempo_500ms
 434              		.syntax unified
 435              		.thumb
 436              		.thumb_func
 437              		.fpu fpv4-sp-d16
 438              		.type	tempo_500ms, %function
 439              	tempo_500ms:
 440              	.LFB409:
  69:src/main.c    **** 
  70:src/main.c    **** void tempo_500ms(){
 441              		.loc 1 70 19 is_stmt 1 view -0
 442              		.cfi_startproc
 443              		@ args = 0, pretend = 0, frame = 8
 444              		@ frame_needed = 0, uses_anonymous_args = 0
 445              		@ link register save eliminated.
  71:src/main.c    **** 	volatile uint32_t duree;
 446              		.loc 1 71 2 view .LVU112
  72:src/main.c    **** 	/* estimation, suppose que le compilateur n'optimise pas trop... */
  73:src/main.c    **** 	for (duree = 0; duree < 5600000 ; duree++){
 447              		.loc 1 73 2 view .LVU113
  70:src/main.c    **** 	volatile uint32_t duree;
 448              		.loc 1 70 19 is_stmt 0 view .LVU114
 449 0110 82B0     		sub	sp, sp, #8
 450              		.cfi_def_cfa_offset 8
 451              		.loc 1 73 13 view .LVU115
 452 0112 0023     		movs	r3, #0
 453              		.loc 1 73 2 view .LVU116
 454 0114 054A     		ldr	r2, .L37
 455              		.loc 1 73 13 view .LVU117
 456 0116 0193     		str	r3, [sp, #4]
 457              	.L35:
 458              		.loc 1 73 18 is_stmt 1 discriminator 1 view .LVU118
 459              		.loc 1 73 24 is_stmt 0 discriminator 1 view .LVU119
 460 0118 019B     		ldr	r3, [sp, #4]
 461              		.loc 1 73 2 discriminator 1 view .LVU120
 462 011a 9342     		cmp	r3, r2
 463 011c 01D3     		bcc	.L36
  74:src/main.c    **** 		;
  75:src/main.c    **** 	}
  76:src/main.c    **** }
 464              		.loc 1 76 1 view .LVU121
 465 011e 02B0     		add	sp, sp, #8
 466              		.cfi_remember_state
 467              		.cfi_def_cfa_offset 0
 468              		@ sp needed
 469 0120 7047     		bx	lr
 470              	.L36:
 471              		.cfi_restore_state
  74:src/main.c    **** 		;
 472              		.loc 1 74 3 is_stmt 1 discriminator 3 view .LVU122
  73:src/main.c    **** 		;
 473              		.loc 1 73 36 discriminator 3 view .LVU123
  73:src/main.c    **** 		;
 474              		.loc 1 73 41 is_stmt 0 discriminator 3 view .LVU124
 475 0122 019B     		ldr	r3, [sp, #4]
 476 0124 0133     		adds	r3, r3, #1
 477 0126 0193     		str	r3, [sp, #4]
 478 0128 F6E7     		b	.L35
 479              	.L38:
 480 012a 00BF     		.align	2
 481              	.L37:
 482 012c 00735500 		.word	5600000
 483              		.cfi_endproc
 484              	.LFE409:
 485              		.size	tempo_500ms, .-tempo_500ms
 486              		.align	1
 487              		.global	LD1_red_off
 488              		.syntax unified
 489              		.thumb
 490              		.thumb_func
 491              		.fpu fpv4-sp-d16
 492              		.type	LD1_red_off, %function
 493              	LD1_red_off:
 494              	.LFB410:
  77:src/main.c    **** 
  78:src/main.c    **** void LD1_red_off(){
 495              		.loc 1 78 19 is_stmt 1 view -0
 496              		.cfi_startproc
 497              		@ args = 0, pretend = 0, frame = 0
 498              		@ frame_needed = 0, uses_anonymous_args = 0
 499              		@ link register save eliminated.
  79:src/main.c    ****     GPIOA.ODR = GPIOA.ODR & ~(0x1 << 8);
 500              		.loc 1 79 5 view .LVU126
 501              		.loc 1 79 22 is_stmt 0 view .LVU127
 502 0130 024A     		ldr	r2, .L40
 503 0132 5369     		ldr	r3, [r2, #20]
 504              		.loc 1 79 27 view .LVU128
 505 0134 23F48073 		bic	r3, r3, #256
 506              		.loc 1 79 15 view .LVU129
 507 0138 5361     		str	r3, [r2, #20]
  80:src/main.c    **** }
 508              		.loc 1 80 1 view .LVU130
 509 013a 7047     		bx	lr
 510              	.L41:
 511              		.align	2
 512              	.L40:
 513 013c 00000000 		.word	GPIOA
 514              		.cfi_endproc
 515              	.LFE410:
 516              		.size	LD1_red_off, .-LD1_red_off
 517              		.align	1
 518              		.global	LD1_green_off
 519              		.syntax unified
 520              		.thumb
 521              		.thumb_func
 522              		.fpu fpv4-sp-d16
 523              		.type	LD1_green_off, %function
 524              	LD1_green_off:
 525              	.LFB411:
  81:src/main.c    **** 
  82:src/main.c    **** void LD1_green_off(){
 526              		.loc 1 82 21 is_stmt 1 view -0
 527              		.cfi_startproc
 528              		@ args = 0, pretend = 0, frame = 0
 529              		@ frame_needed = 0, uses_anonymous_args = 0
 530              		@ link register save eliminated.
  83:src/main.c    ****     GPIOA.ODR = GPIOA.ODR & ~(0x1 << 9);
 531              		.loc 1 83 5 view .LVU132
 532              		.loc 1 83 22 is_stmt 0 view .LVU133
 533 0140 024A     		ldr	r2, .L43
 534 0142 5369     		ldr	r3, [r2, #20]
 535              		.loc 1 83 27 view .LVU134
 536 0144 23F40073 		bic	r3, r3, #512
 537              		.loc 1 83 15 view .LVU135
 538 0148 5361     		str	r3, [r2, #20]
  84:src/main.c    **** }
 539              		.loc 1 84 1 view .LVU136
 540 014a 7047     		bx	lr
 541              	.L44:
 542              		.align	2
 543              	.L43:
 544 014c 00000000 		.word	GPIOA
 545              		.cfi_endproc
 546              	.LFE411:
 547              		.size	LD1_green_off, .-LD1_green_off
 548              		.align	1
 549              		.global	LD1_blue_off
 550              		.syntax unified
 551              		.thumb
 552              		.thumb_func
 553              		.fpu fpv4-sp-d16
 554              		.type	LD1_blue_off, %function
 555              	LD1_blue_off:
 556              	.LFB412:
  85:src/main.c    **** 
  86:src/main.c    **** void LD1_blue_off(){
 557              		.loc 1 86 20 is_stmt 1 view -0
 558              		.cfi_startproc
 559              		@ args = 0, pretend = 0, frame = 0
 560              		@ frame_needed = 0, uses_anonymous_args = 0
 561              		@ link register save eliminated.
  87:src/main.c    ****     GPIOA.ODR = GPIOA.ODR & ~(0x1 << 10);
 562              		.loc 1 87 5 view .LVU138
 563              		.loc 1 87 22 is_stmt 0 view .LVU139
 564 0150 024A     		ldr	r2, .L46
 565 0152 5369     		ldr	r3, [r2, #20]
 566              		.loc 1 87 27 view .LVU140
 567 0154 23F48063 		bic	r3, r3, #1024
 568              		.loc 1 87 15 view .LVU141
 569 0158 5361     		str	r3, [r2, #20]
  88:src/main.c    **** }
 570              		.loc 1 88 1 view .LVU142
 571 015a 7047     		bx	lr
 572              	.L47:
 573              		.align	2
 574              	.L46:
 575 015c 00000000 		.word	GPIOA
 576              		.cfi_endproc
 577              	.LFE412:
 578              		.size	LD1_blue_off, .-LD1_blue_off
 579              		.align	1
 580              		.global	win
 581              		.syntax unified
 582              		.thumb
 583              		.thumb_func
 584              		.fpu fpv4-sp-d16
 585              		.type	win, %function
 586              	win:
 587              	.LFB413:
  89:src/main.c    **** 
  90:src/main.c    **** 
  91:src/main.c    **** volatile int incr = 0;
  92:src/main.c    **** 
  93:src/main.c    **** void win(){
 588              		.loc 1 93 11 is_stmt 1 view -0
 589              		.cfi_startproc
 590              		@ args = 0, pretend = 0, frame = 0
 591              		@ frame_needed = 0, uses_anonymous_args = 0
  94:src/main.c    **** 	for(int i = 0; i < 3; i++){
 592              		.loc 1 94 2 view .LVU144
 593              	.LBB5:
 594              		.loc 1 94 6 view .LVU145
 595              	.LVL14:
 596              		.loc 1 94 17 view .LVU146
  95:src/main.c    **** 		LD1_green_on();
 597              		.loc 1 95 3 view .LVU147
 598              	.LBE5:
  93:src/main.c    **** 	for(int i = 0; i < 3; i++){
 599              		.loc 1 93 11 is_stmt 0 view .LVU148
 600 0160 08B5     		push	{r3, lr}
 601              		.cfi_def_cfa_offset 8
 602              		.cfi_offset 3, -8
 603              		.cfi_offset 14, -4
 604              	.LBB6:
 605              		.loc 1 95 3 view .LVU149
 606 0162 FFF7FEFF 		bl	LD1_green_on
 607              	.LVL15:
  96:src/main.c    **** 		tempo_500ms();
 608              		.loc 1 96 3 is_stmt 1 view .LVU150
 609 0166 FFF7FEFF 		bl	tempo_500ms
 610              	.LVL16:
  97:src/main.c    **** 		LD1_green_off();
 611              		.loc 1 97 3 view .LVU151
 612 016a FFF7FEFF 		bl	LD1_green_off
 613              	.LVL17:
  98:src/main.c    **** 		tempo_500ms();
 614              		.loc 1 98 3 view .LVU152
 615 016e FFF7FEFF 		bl	tempo_500ms
 616              	.LVL18:
  94:src/main.c    **** 		LD1_green_on();
 617              		.loc 1 94 24 view .LVU153
  94:src/main.c    **** 		LD1_green_on();
 618              		.loc 1 94 17 view .LVU154
  95:src/main.c    **** 		tempo_500ms();
 619              		.loc 1 95 3 view .LVU155
 620 0172 FFF7FEFF 		bl	LD1_green_on
 621              	.LVL19:
  96:src/main.c    **** 		LD1_green_off();
 622              		.loc 1 96 3 view .LVU156
 623 0176 FFF7FEFF 		bl	tempo_500ms
 624              	.LVL20:
  97:src/main.c    **** 		tempo_500ms();
 625              		.loc 1 97 3 view .LVU157
 626 017a FFF7FEFF 		bl	LD1_green_off
 627              	.LVL21:
 628              		.loc 1 98 3 view .LVU158
 629 017e FFF7FEFF 		bl	tempo_500ms
 630              	.LVL22:
  94:src/main.c    **** 		LD1_green_on();
 631              		.loc 1 94 24 view .LVU159
  94:src/main.c    **** 		LD1_green_on();
 632              		.loc 1 94 17 view .LVU160
  95:src/main.c    **** 		tempo_500ms();
 633              		.loc 1 95 3 view .LVU161
 634 0182 FFF7FEFF 		bl	LD1_green_on
 635              	.LVL23:
  96:src/main.c    **** 		LD1_green_off();
 636              		.loc 1 96 3 view .LVU162
 637 0186 FFF7FEFF 		bl	tempo_500ms
 638              	.LVL24:
  97:src/main.c    **** 		tempo_500ms();
 639              		.loc 1 97 3 view .LVU163
 640 018a FFF7FEFF 		bl	LD1_green_off
 641              	.LVL25:
 642              		.loc 1 98 3 view .LVU164
 643              	.LBE6:
  99:src/main.c    **** 	}
 100:src/main.c    **** 	// incr = 0; // Pour que l'interruption permette de relancer une séquence (jsp si ça va marcher)
 101:src/main.c    **** }
 644              		.loc 1 101 1 is_stmt 0 view .LVU165
 645 018e BDE80840 		pop	{r3, lr}
 646              		.cfi_restore 14
 647              		.cfi_restore 3
 648              		.cfi_def_cfa_offset 0
 649              	.LBB7:
  98:src/main.c    **** 	}
 650              		.loc 1 98 3 view .LVU166
 651 0192 FFF7FEBF 		b	tempo_500ms
 652              	.LVL26:
 653              	.LBE7:
 654              		.cfi_endproc
 655              	.LFE413:
 656              		.size	win, .-win
 657              		.align	1
 658              		.global	lose
 659              		.syntax unified
 660              		.thumb
 661              		.thumb_func
 662              		.fpu fpv4-sp-d16
 663              		.type	lose, %function
 664              	lose:
 665              	.LFB414:
 102:src/main.c    **** 
 103:src/main.c    **** void lose(){
 666              		.loc 1 103 12 is_stmt 1 view -0
 667              		.cfi_startproc
 668              		@ args = 0, pretend = 0, frame = 0
 669              		@ frame_needed = 0, uses_anonymous_args = 0
 104:src/main.c    **** 	for(int i = 0; i < 3; i++){
 670              		.loc 1 104 2 view .LVU168
 671              	.LBB8:
 672              		.loc 1 104 6 view .LVU169
 673              	.LVL27:
 674              		.loc 1 104 17 view .LVU170
 105:src/main.c    **** 		LD1_red_on();
 675              		.loc 1 105 3 view .LVU171
 676              	.LBE8:
 103:src/main.c    **** 	for(int i = 0; i < 3; i++){
 677              		.loc 1 103 12 is_stmt 0 view .LVU172
 678 0196 08B5     		push	{r3, lr}
 679              		.cfi_def_cfa_offset 8
 680              		.cfi_offset 3, -8
 681              		.cfi_offset 14, -4
 682              	.LBB9:
 683              		.loc 1 105 3 view .LVU173
 684 0198 FFF7FEFF 		bl	LD1_red_on
 685              	.LVL28:
 106:src/main.c    **** 		tempo_500ms();
 686              		.loc 1 106 3 is_stmt 1 view .LVU174
 687 019c FFF7FEFF 		bl	tempo_500ms
 688              	.LVL29:
 107:src/main.c    **** 		LD1_red_off();
 689              		.loc 1 107 3 view .LVU175
 690 01a0 FFF7FEFF 		bl	LD1_red_off
 691              	.LVL30:
 108:src/main.c    **** 		tempo_500ms();
 692              		.loc 1 108 3 view .LVU176
 693 01a4 FFF7FEFF 		bl	tempo_500ms
 694              	.LVL31:
 104:src/main.c    **** 		LD1_red_on();
 695              		.loc 1 104 24 view .LVU177
 104:src/main.c    **** 		LD1_red_on();
 696              		.loc 1 104 17 view .LVU178
 105:src/main.c    **** 		tempo_500ms();
 697              		.loc 1 105 3 view .LVU179
 698 01a8 FFF7FEFF 		bl	LD1_red_on
 699              	.LVL32:
 106:src/main.c    **** 		LD1_red_off();
 700              		.loc 1 106 3 view .LVU180
 701 01ac FFF7FEFF 		bl	tempo_500ms
 702              	.LVL33:
 107:src/main.c    **** 		tempo_500ms();
 703              		.loc 1 107 3 view .LVU181
 704 01b0 FFF7FEFF 		bl	LD1_red_off
 705              	.LVL34:
 706              		.loc 1 108 3 view .LVU182
 707 01b4 FFF7FEFF 		bl	tempo_500ms
 708              	.LVL35:
 104:src/main.c    **** 		LD1_red_on();
 709              		.loc 1 104 24 view .LVU183
 104:src/main.c    **** 		LD1_red_on();
 710              		.loc 1 104 17 view .LVU184
 105:src/main.c    **** 		tempo_500ms();
 711              		.loc 1 105 3 view .LVU185
 712 01b8 FFF7FEFF 		bl	LD1_red_on
 713              	.LVL36:
 106:src/main.c    **** 		LD1_red_off();
 714              		.loc 1 106 3 view .LVU186
 715 01bc FFF7FEFF 		bl	tempo_500ms
 716              	.LVL37:
 107:src/main.c    **** 		tempo_500ms();
 717              		.loc 1 107 3 view .LVU187
 718 01c0 FFF7FEFF 		bl	LD1_red_off
 719              	.LVL38:
 720              		.loc 1 108 3 view .LVU188
 721              	.LBE9:
 109:src/main.c    **** 	}
 110:src/main.c    **** }
 722              		.loc 1 110 1 is_stmt 0 view .LVU189
 723 01c4 BDE80840 		pop	{r3, lr}
 724              		.cfi_restore 14
 725              		.cfi_restore 3
 726              		.cfi_def_cfa_offset 0
 727              	.LBB10:
 108:src/main.c    **** 	}
 728              		.loc 1 108 3 view .LVU190
 729 01c8 FFF7FEBF 		b	tempo_500ms
 730              	.LVL39:
 731              	.LBE10:
 732              		.cfi_endproc
 733              	.LFE414:
 734              		.size	lose, .-lose
 735              		.align	1
 736              		.global	SysTick_Handler
 737              		.syntax unified
 738              		.thumb
 739              		.thumb_func
 740              		.fpu fpv4-sp-d16
 741              		.type	SysTick_Handler, %function
 742              	SysTick_Handler:
 743              	.LFB415:
 111:src/main.c    **** 
 112:src/main.c    **** void __attribute__((interrupt)) SysTick_Handler(){
 744              		.loc 1 112 50 is_stmt 1 view -0
 745              		.cfi_startproc
 746              		@ Stack Align: May be called with mis-aligned SP.
 747              		@ args = 0, pretend = 0, frame = 0
 748              		@ frame_needed = 0, uses_anonymous_args = 0
 113:src/main.c    ****    /* Le fait de définir cette fonction suffit pour
 114:src/main.c    **** 	 * qu'elle soit utilisée comme traitant,
 115:src/main.c    **** 	 * cf les fichiers de compilation et d'édition de lien
 116:src/main.c    **** 	 * pour plus de détails.
 117:src/main.c    **** 	 */
 118:src/main.c    **** 
 119:src/main.c    **** 	switch(incr){
 749              		.loc 1 119 2 view .LVU192
 112:src/main.c    ****    /* Le fait de définir cette fonction suffit pour
 750              		.loc 1 112 50 is_stmt 0 view .LVU193
 751 01cc 6846     		mov	r0, sp
 752              		.cfi_register 13, 0
 753 01ce 20F00701 		bic	r1, r0, #7
 754 01d2 8D46     		mov	sp, r1
 755              		.loc 1 119 2 view .LVU194
 756 01d4 2349     		ldr	r1, .L66
 757 01d6 0B68     		ldr	r3, [r1]
 758 01d8 40F6B832 		movw	r2, #3000
 759 01dc 9342     		cmp	r3, r2
 112:src/main.c    ****    /* Le fait de définir cette fonction suffit pour
 760              		.loc 1 112 50 view .LVU195
 761 01de 01B5     		push	{r0, lr}
 762              		.cfi_def_cfa_offset 8
 763              		.cfi_offset 13, -8
 764              		.cfi_offset 14, -4
 765              		.loc 1 119 2 view .LVU196
 766 01e0 35D0     		beq	.L51
 767 01e2 16DC     		bgt	.L52
 768 01e4 40F2DC52 		movw	r2, #1500
 769 01e8 9342     		cmp	r3, r2
 770 01ea 35D0     		beq	.L64
 771 01ec 0ADC     		bgt	.L54
 772 01ee 43B3     		cbz	r3, .L55
 773 01f0 B3F57A7F 		cmp	r3, #1000
 774 01f4 28D0     		beq	.L56
 775              	.L57:
 120:src/main.c    **** 		case 0: // Allumer en rouge
 121:src/main.c    **** 			LD1_red_on();
 122:src/main.c    **** 			break;
 123:src/main.c    **** 		case 1000: // Eteindre le rouge
 124:src/main.c    **** 			LD1_red_off();
 125:src/main.c    **** 			break;
 126:src/main.c    **** 		case 1500: // Allumer en bleu
 127:src/main.c    **** 			LD1_blue_on();
 128:src/main.c    **** 			break;
 129:src/main.c    **** 		case 2500: // Eteindre le bleu
 130:src/main.c    **** 			LD1_blue_off();
 131:src/main.c    **** 			break;
 132:src/main.c    **** 		case 3000: // Allumer en vert
 133:src/main.c    **** 			LD1_green_on();
 134:src/main.c    **** 			break;
 135:src/main.c    **** 		case 4000: // Eteindre le vert
 136:src/main.c    **** 			LD1_green_off();
 137:src/main.c    **** 			break;
 138:src/main.c    **** 		case 4500: // Allumer en magenta
 139:src/main.c    **** 			LD1_red_on();
 140:src/main.c    **** 			LD1_blue_on();
 141:src/main.c    **** 			break;
 142:src/main.c    **** 		case 5500: // Eteindre le magenta
 143:src/main.c    **** 			LD1_red_off();
 144:src/main.c    **** 			LD1_blue_off();
 145:src/main.c    **** 			break;
 146:src/main.c    **** 		/* case 6000: // Le joueur peut taper la séquence au clavier
 147:src/main.c    **** 			_puts("Séquence tapée par le joueur : \n");
 148:src/main.c    **** 			int n = 0;
 149:src/main.c    **** 			while (n < 4){
 150:src/main.c    **** 				char c = _getc();
 151:src/main.c    **** 
 152:src/main.c    **** 				n++;
 153:src/main.c    **** 			}*/
 154:src/main.c    **** 		case 13500: // 5500 + 8000 (8 secondes plus tard), on déclenche la défaite <= fin du prog
 155:src/main.c    **** 			lose();
 156:src/main.c    **** 			exit(1);
 157:src/main.c    **** 			break; 
 776              		.loc 1 157 4 is_stmt 1 view .LVU197
 158:src/main.c    **** 
 159:src/main.c    **** 	}
 160:src/main.c    ****   
 161:src/main.c    ****   incr = incr + 1;
 777              		.loc 1 161 3 view .LVU198
 162:src/main.c    **** }
 778              		.loc 1 162 1 is_stmt 0 view .LVU199
 779 01f6 BDE80140 		pop	{r0, lr}
 780              		.cfi_remember_state
 781              		.cfi_restore 14
 782              		.cfi_restore 0
 783              		.cfi_def_cfa_offset 0
 161:src/main.c    **** }
 784              		.loc 1 161 15 view .LVU200
 785 01fa 0B68     		ldr	r3, [r1]
 786 01fc 0133     		adds	r3, r3, #1
 161:src/main.c    **** }
 787              		.loc 1 161 8 view .LVU201
 788 01fe 0B60     		str	r3, [r1]
 789              		.loc 1 162 1 view .LVU202
 790 0200 8546     		mov	sp, r0
 791 0202 7047     		bx	lr
 792              	.L54:
 793              		.cfi_restore_state
 119:src/main.c    **** 		case 0: // Allumer en rouge
 794              		.loc 1 119 2 view .LVU203
 795 0204 40F6C412 		movw	r2, #2500
 796 0208 9342     		cmp	r3, r2
 797 020a F4D1     		bne	.L57
 798              	.L65:
 144:src/main.c    **** 			break;
 799              		.loc 1 144 4 is_stmt 1 view .LVU204
 800 020c FFF7FEFF 		bl	LD1_blue_off
 801              	.LVL40:
 145:src/main.c    **** 		/* case 6000: // Le joueur peut taper la séquence au clavier
 802              		.loc 1 145 4 view .LVU205
 803 0210 F1E7     		b	.L57
 804              	.L52:
 119:src/main.c    **** 		case 0: // Allumer en rouge
 805              		.loc 1 119 2 is_stmt 0 view .LVU206
 806 0212 41F29412 		movw	r2, #4500
 807 0216 9342     		cmp	r3, r2
 808 0218 1CD0     		beq	.L59
 809 021a 05DC     		bgt	.L60
 810 021c B3F57A6F 		cmp	r3, #4000
 811 0220 E9D1     		bne	.L57
 136:src/main.c    **** 			break;
 812              		.loc 1 136 4 is_stmt 1 view .LVU207
 813 0222 FFF7FEFF 		bl	LD1_green_off
 814              	.LVL41:
 137:src/main.c    **** 		case 4500: // Allumer en magenta
 815              		.loc 1 137 4 view .LVU208
 816 0226 E6E7     		b	.L57
 817              	.L60:
 119:src/main.c    **** 		case 0: // Allumer en rouge
 818              		.loc 1 119 2 is_stmt 0 view .LVU209
 819 0228 41F27C52 		movw	r2, #5500
 820 022c 9342     		cmp	r3, r2
 821 022e 16D0     		beq	.L62
 822 0230 43F2BC42 		movw	r2, #13500
 823 0234 9342     		cmp	r3, r2
 824 0236 DED1     		bne	.L57
 155:src/main.c    **** 			exit(1);
 825              		.loc 1 155 4 is_stmt 1 view .LVU210
 156:src/main.c    **** 			break; 
 826              		.loc 1 156 4 is_stmt 0 view .LVU211
 827 0238 0120     		movs	r0, #1
 155:src/main.c    **** 			exit(1);
 828              		.loc 1 155 4 view .LVU212
 829 023a FFF7FEFF 		bl	lose
 830              	.LVL42:
 156:src/main.c    **** 			break; 
 831              		.loc 1 156 4 is_stmt 1 view .LVU213
 832 023e FFF7FEFF 		bl	exit
 833              	.LVL43:
 834              	.L55:
 121:src/main.c    **** 			break;
 835              		.loc 1 121 4 view .LVU214
 836 0242 FFF7FEFF 		bl	LD1_red_on
 837              	.LVL44:
 122:src/main.c    **** 		case 1000: // Eteindre le rouge
 838              		.loc 1 122 4 view .LVU215
 839 0246 D6E7     		b	.L57
 840              	.L56:
 124:src/main.c    **** 			break;
 841              		.loc 1 124 4 view .LVU216
 842 0248 FFF7FEFF 		bl	LD1_red_off
 843              	.LVL45:
 125:src/main.c    **** 		case 1500: // Allumer en bleu
 844              		.loc 1 125 4 view .LVU217
 845 024c D3E7     		b	.L57
 846              	.L51:
 133:src/main.c    **** 			break;
 847              		.loc 1 133 4 view .LVU218
 848 024e FFF7FEFF 		bl	LD1_green_on
 849              	.LVL46:
 134:src/main.c    **** 		case 4000: // Eteindre le vert
 850              		.loc 1 134 4 view .LVU219
 851 0252 D0E7     		b	.L57
 852              	.L59:
 139:src/main.c    **** 			LD1_blue_on();
 853              		.loc 1 139 4 view .LVU220
 854 0254 FFF7FEFF 		bl	LD1_red_on
 855              	.LVL47:
 856              	.L64:
 140:src/main.c    **** 			break;
 857              		.loc 1 140 4 view .LVU221
 858 0258 FFF7FEFF 		bl	LD1_blue_on
 859              	.LVL48:
 141:src/main.c    **** 		case 5500: // Eteindre le magenta
 860              		.loc 1 141 4 view .LVU222
 861 025c CBE7     		b	.L57
 862              	.L62:
 143:src/main.c    **** 			LD1_blue_off();
 863              		.loc 1 143 4 view .LVU223
 864 025e FFF7FEFF 		bl	LD1_red_off
 865              	.LVL49:
 866 0262 D3E7     		b	.L65
 867              	.L67:
 868              		.align	2
 869              	.L66:
 870 0264 00000000 		.word	.LANCHOR0
 871              		.cfi_endproc
 872              	.LFE415:
 873              		.size	SysTick_Handler, .-SysTick_Handler
 874              		.section	.rodata.str1.1,"aMS",%progbits,1
 875              	.LC0:
 876 0000 54617065 		.ascii	"Tapez au clavier la s\303\251quence de lumi\303\250"
 876      7A206175 
 876      20636C61 
 876      76696572 
 876      206C6120 
 877 0027 72657320 		.ascii	"res : \012\000"
 877      3A200A00 
 878              		.section	.text.startup,"ax",%progbits
 879              		.align	1
 880              		.global	main
 881              		.syntax unified
 882              		.thumb
 883              		.thumb_func
 884              		.fpu fpv4-sp-d16
 885              		.type	main, %function
 886              	main:
 887              	.LFB416:
 163:src/main.c    **** 
 164:src/main.c    **** 
 165:src/main.c    **** // On fait clignoter la LED grâce aux interruptions (1 seconde allumée, 1/2 éteinte, jusqu'à ce
 166:src/main.c    **** 
 167:src/main.c    **** // La séquence générée dure 4*1s + 4* 0,5s = 4+2 = 6 secondes 
 168:src/main.c    **** // Le joueur a 8 secondes pour reproduire la séquence, après la fin de celle-ci
 169:src/main.c    **** // Si le joueur se trompe, c'est la fin : il faut relancer le programme pour rejouer (la LED s'allu
 170:src/main.c    **** // Sinon, la LED s'allume 3 fois en vert pour indiquer que c'est gagné 
 171:src/main.c    **** 
 172:src/main.c    **** int main(){
 888              		.loc 1 172 11 view -0
 889              		.cfi_startproc
 890              		@ args = 0, pretend = 0, frame = 8
 891              		@ frame_needed = 0, uses_anonymous_args = 0
 173:src/main.c    ****     init_LD1(); // Initialisation de la LED tricolore
 892              		.loc 1 173 5 view .LVU225
 172:src/main.c    ****     init_LD1(); // Initialisation de la LED tricolore
 893              		.loc 1 172 11 is_stmt 0 view .LVU226
 894 0000 37B5     		push	{r0, r1, r2, r4, r5, lr}
 895              		.cfi_def_cfa_offset 24
 896              		.cfi_offset 4, -12
 897              		.cfi_offset 5, -8
 898              		.cfi_offset 14, -4
 174:src/main.c    **** 	systick_init(1000); // Interruption initialisée 
 899              		.loc 1 174 2 view .LVU227
 900 0002 4FF47A70 		mov	r0, #1000
 173:src/main.c    ****     init_LD1(); // Initialisation de la LED tricolore
 901              		.loc 1 173 5 view .LVU228
 902 0006 FFF7FEFF 		bl	init_LD1
 903              	.LVL50:
 904              		.loc 1 174 2 is_stmt 1 view .LVU229
 905 000a FFF7FEFF 		bl	systick_init
 906              	.LVL51:
 175:src/main.c    **** 	char seq[4] = "rbvm";
 907              		.loc 1 175 2 view .LVU230
 908              		.loc 1 175 7 is_stmt 0 view .LVU231
 909 000e 0F4B     		ldr	r3, .L73
 910 0010 0193     		str	r3, [sp, #4]
 176:src/main.c    **** 	char *player = malloc(4*sizeof(char));
 911              		.loc 1 176 2 is_stmt 1 view .LVU232
 912              		.loc 1 176 17 is_stmt 0 view .LVU233
 913 0012 0420     		movs	r0, #4
 914 0014 FFF7FEFF 		bl	malloc
 915              	.LVL52:
 916 0018 0446     		mov	r4, r0
 917              	.LVL53:
 177:src/main.c    ****     while (1){
 918              		.loc 1 177 5 is_stmt 1 view .LVU234
 919              	.LBB11:
 178:src/main.c    **** 		puts("Tapez au clavier la séquence de lumières : \n");
 920              		.loc 1 178 3 view .LVU235
 921 001a 0D48     		ldr	r0, .L73+4
 922              	.LVL54:
 923              		.loc 1 178 3 is_stmt 0 view .LVU236
 924 001c FFF7FEFF 		bl	puts
 925              	.LVL55:
 179:src/main.c    **** 		int i = 0;
 926              		.loc 1 179 3 is_stmt 1 view .LVU237
 180:src/main.c    **** 		while (i < 4){
 927              		.loc 1 180 3 view .LVU238
 928              		.loc 1 180 9 view .LVU239
 929 0020 E51C     		adds	r5, r4, #3
 930 0022 611E     		subs	r1, r4, #1
 931              	.LVL56:
 932              	.L69:
 933              	.LBB12:
 181:src/main.c    **** 			char c = _getc();
 934              		.loc 1 181 4 view .LVU240
 935              		.loc 1 181 13 is_stmt 0 view .LVU241
 936 0024 FFF7FEFF 		bl	_getc
 937              	.LVL57:
 182:src/main.c    **** 			player[i] = c;
 938              		.loc 1 182 4 is_stmt 1 view .LVU242
 939              		.loc 1 182 14 is_stmt 0 view .LVU243
 940 0028 01F8010F 		strb	r0, [r1, #1]!
 183:src/main.c    **** 			i++;
 941              		.loc 1 183 4 is_stmt 1 view .LVU244
 942              	.LBE12:
 180:src/main.c    **** 			char c = _getc();
 943              		.loc 1 180 9 view .LVU245
 944 002c A942     		cmp	r1, r5
 945 002e F9D1     		bne	.L69
 184:src/main.c    **** 		}
 185:src/main.c    **** 		// Victoire ou défaite du joueur
 186:src/main.c    **** 		if (strcmp(seq, player) == 0){ // Si la séquence tapée est correcte, le joueur a gagné
 946              		.loc 1 186 3 view .LVU246
 947              		.loc 1 186 7 is_stmt 0 view .LVU247
 948 0030 2146     		mov	r1, r4
 949 0032 01A8     		add	r0, sp, #4
 950              	.LVL58:
 951              		.loc 1 186 7 view .LVU248
 952 0034 FFF7FEFF 		bl	strcmp
 953              	.LVL59:
 954              		.loc 1 186 6 view .LVU249
 955 0038 20B9     		cbnz	r0, .L70
 187:src/main.c    **** 			win(); // gagne
 956              		.loc 1 187 4 is_stmt 1 view .LVU250
 957 003a FFF7FEFF 		bl	win
 958              	.LVL60:
 188:src/main.c    **** 			return 0;
 959              		.loc 1 188 4 view .LVU251
 960              	.L71:
 961              	.LBE11:
 189:src/main.c    **** 		}
 190:src/main.c    **** 		else{ // Défaite
 191:src/main.c    **** 			lose();
 192:src/main.c    **** 			return 0;
 193:src/main.c    **** 		}
 194:src/main.c    **** 
 195:src/main.c    ****     }
 196:src/main.c    **** }...
 962              		.loc 1 196 1 is_stmt 0 view .LVU252
 963 003e 0020     		movs	r0, #0
 964 0040 03B0     		add	sp, sp, #12
 965              		.cfi_remember_state
 966              		.cfi_def_cfa_offset 12
 967              		@ sp needed
 968 0042 30BD     		pop	{r4, r5, pc}
 969              	.LVL61:
 970              	.L70:
 971              		.cfi_restore_state
 972              	.LBB13:
 191:src/main.c    **** 			lose();
 973              		.loc 1 191 4 is_stmt 1 view .LVU253
 974 0044 FFF7FEFF 		bl	lose
 975              	.LVL62:
 192:src/main.c    **** 			return 0;
 976              		.loc 1 192 4 view .LVU254
 192:src/main.c    **** 			return 0;
 977              		.loc 1 192 11 is_stmt 0 view .LVU255
 978 0048 F9E7     		b	.L71
 979              	.L74:
 980 004a 00BF     		.align	2
 981              	.L73:
 982 004c 7262766D 		.word	1836474994
 983 0050 00000000 		.word	.LC0
 984              	.LBE13:
 985              		.cfi_endproc
 986              	.LFE416:
 987              		.size	main, .-main
 988              		.global	incr
 989              		.bss
 990              		.align	2
 991              		.set	.LANCHOR0,. + 0
 992              		.type	incr, %object
 993              		.size	incr, 4
 994              	incr:
 995 0000 00000000 		.space	4
 996              		.text
 997              	.Letext0:
 998              		.file 2 "/usr/include/newlib/machine/_default_types.h"
 999              		.file 3 "/usr/include/newlib/sys/_stdint.h"
 1000              		.file 4 "src/sys/devices.h"
 1001              		.file 5 "/usr/include/newlib/stdio.h"
 1002              		.file 6 "/usr/include/newlib/string.h"
 1003              		.file 7 "/usr/include/newlib/stdlib.h"
 1004              		.file 8 "src/sys/clock.h"